; ModuleID = 'build.7rcbfp3g-cgu.0'
source_filename = "build.7rcbfp3g-cgu.0"
target datalayout = "e-m:o-i64:64-f80:128-n8:16:32:64-S128"
target triple = "x86_64-apple-macosx10.7.0"

%"std::error::{{impl}}::from::StringError" = type { [0 x i64], %"alloc::string::String", [0 x i64] }
%"alloc::string::String" = type { [0 x i64], %"alloc::vec::Vec<u8>", [0 x i64] }
%"alloc::vec::Vec<u8>" = type { [0 x i64], { i8*, i64 }, [0 x i64], i64, [0 x i64] }
%"core::fmt::Formatter" = type { [0 x i64], { i64, i64 }, [0 x i64], { i64, i64 }, [0 x i64], { {}*, [3 x i64]* }, [0 x i32], i32, [0 x i32], i32, [0 x i8], i8, [7 x i8] }
%"std::io::error::Error" = type { [0 x i64], %"std::io::error::Repr", [0 x i64] }
%"std::io::error::Repr" = type { [0 x i8], i8, [15 x i8] }
%"core::alloc::LayoutErr" = type { [0 x i8], {}, [0 x i8] }
%"core::convert::Infallible" = type { [0 x i8] }
%"alloc::collections::btree::node::NodeHeader<(), ()>" = type { [0 x i64], %"alloc::collections::btree::node::InternalNode<(), ()>"*, [0 x i16], i16, [0 x i16], i16, [2 x i16] }
%"alloc::collections::btree::node::InternalNode<(), ()>" = type { [0 x i64], %"alloc::collections::btree::node::LeafNode<(), ()>", [0 x i64], [12 x i8*], [0 x i64] }
%"alloc::collections::btree::node::LeafNode<(), ()>" = type { [0 x i64], %"alloc::collections::btree::node::InternalNode<(), ()>"*, [0 x i16], i16, [0 x i16], i16, [0 x i8], [11 x %"core::mem::maybe_uninit::MaybeUninit<()>"], [0 x i8], [11 x %"core::mem::maybe_uninit::MaybeUninit<()>"], [4 x i8] }
%"core::mem::maybe_uninit::MaybeUninit<()>" = type { [0 x i8] }
%"std::ffi::os_str::OsStr" = type { [0 x i8], %"std::sys_common::os_str_bytes::Slice" }
%"std::sys_common::os_str_bytes::Slice" = type { [0 x i8], [0 x i8] }
%"std::ffi::os_str::OsString" = type { [0 x i64], %"std::sys_common::os_str_bytes::Buf", [0 x i64] }
%"std::sys_common::os_str_bytes::Buf" = type { [0 x i64], %"alloc::vec::Vec<u8>", [0 x i64] }
%"core::option::Option<(std::ffi::os_str::OsString, core::option::Option<std::ffi::os_str::OsString>)>" = type { [0 x i64], {}*, [5 x i64] }
%"alloc::collections::btree::map::IntoIter<std::ffi::os_str::OsString, core::option::Option<std::ffi::os_str::OsString>>" = type { [0 x i64], %"alloc::collections::btree::node::Handle<alloc::collections::btree::node::NodeRef<alloc::collections::btree::node::marker::Owned, std::ffi::os_str::OsString, core::option::Option<std::ffi::os_str::OsString>, alloc::collections::btree::node::marker::Leaf>, alloc::collections::btree::node::marker::Edge>", [0 x i64], %"alloc::collections::btree::node::Handle<alloc::collections::btree::node::NodeRef<alloc::collections::btree::node::marker::Owned, std::ffi::os_str::OsString, core::option::Option<std::ffi::os_str::OsString>, alloc::collections::btree::node::marker::Leaf>, alloc::collections::btree::node::marker::Edge>", [0 x i64], i64, [0 x i64] }
%"alloc::collections::btree::node::Handle<alloc::collections::btree::node::NodeRef<alloc::collections::btree::node::marker::Owned, std::ffi::os_str::OsString, core::option::Option<std::ffi::os_str::OsString>, alloc::collections::btree::node::marker::Leaf>, alloc::collections::btree::node::marker::Edge>" = type { [0 x i8], %"core::marker::PhantomData<alloc::collections::btree::node::marker::Edge>", [0 x i8], %"alloc::collections::btree::node::NodeRef<alloc::collections::btree::node::marker::Owned, std::ffi::os_str::OsString, core::option::Option<std::ffi::os_str::OsString>, alloc::collections::btree::node::marker::Leaf>", [0 x i64], i64, [0 x i64] }
%"core::marker::PhantomData<alloc::collections::btree::node::marker::Edge>" = type {}
%"alloc::collections::btree::node::NodeRef<alloc::collections::btree::node::marker::Owned, std::ffi::os_str::OsString, core::option::Option<std::ffi::os_str::OsString>, alloc::collections::btree::node::marker::Leaf>" = type { [0 x i8], %"core::marker::PhantomData<(alloc::collections::btree::node::marker::Owned, alloc::collections::btree::node::marker::Leaf)>", [0 x i8], i64, [0 x i64], i64*, [0 x i64], { i64*, i64 }*, [0 x i64] }
%"core::marker::PhantomData<(alloc::collections::btree::node::marker::Owned, alloc::collections::btree::node::marker::Leaf)>" = type {}
%"core::option::Option<std::ffi::os_str::OsString>" = type { [0 x i64], {}*, [2 x i64] }
%"core::option::Option<(std::ffi::os_str::OsString, core::option::Option<std::ffi::os_str::OsString>)>::Some" = type { [0 x i64], { [0 x i64], %"std::ffi::os_str::OsString", [0 x i64], %"core::option::Option<std::ffi::os_str::OsString>", [0 x i64] }, [0 x i64] }
%"alloc::collections::btree::map::BTreeMap<std::ffi::os_str::OsString, core::option::Option<std::ffi::os_str::OsString>>" = type { [0 x i64], { i64*, i64 }, [0 x i64], i64, [0 x i64] }
%"alloc::collections::btree::node::NodeRef<alloc::collections::btree::node::marker::Owned, std::ffi::os_str::OsString, core::option::Option<std::ffi::os_str::OsString>, alloc::collections::btree::node::marker::LeafOrInternal>" = type { [0 x i8], %"core::marker::PhantomData<(alloc::collections::btree::node::marker::Owned, alloc::collections::btree::node::marker::LeafOrInternal)>", [0 x i8], i64, [0 x i64], i64*, [0 x i64], { i64*, i64 }*, [0 x i64] }
%"core::marker::PhantomData<(alloc::collections::btree::node::marker::Owned, alloc::collections::btree::node::marker::LeafOrInternal)>" = type {}
%"alloc::collections::btree::node::LeafNode<std::ffi::os_str::OsString, core::option::Option<std::ffi::os_str::OsString>>" = type { [0 x i64], %"alloc::collections::btree::node::InternalNode<std::ffi::os_str::OsString, core::option::Option<std::ffi::os_str::OsString>>"*, [0 x i16], i16, [0 x i16], i16, [2 x i16], [11 x %"core::mem::maybe_uninit::MaybeUninit<std::ffi::os_str::OsString>"], [0 x i64], [11 x %"core::mem::maybe_uninit::MaybeUninit<core::option::Option<std::ffi::os_str::OsString>>"], [0 x i64] }
%"alloc::collections::btree::node::InternalNode<std::ffi::os_str::OsString, core::option::Option<std::ffi::os_str::OsString>>" = type { [0 x i64], %"alloc::collections::btree::node::LeafNode<std::ffi::os_str::OsString, core::option::Option<std::ffi::os_str::OsString>>", [0 x i64], [12 x i8*], [0 x i64] }
%"core::mem::maybe_uninit::MaybeUninit<std::ffi::os_str::OsString>" = type { [3 x i64] }
%"core::mem::maybe_uninit::MaybeUninit<core::option::Option<std::ffi::os_str::OsString>>" = type { [3 x i64] }
%"core::str::{{impl}}::as_bytes::Slices" = type { [2 x i64] }
%"core::result::Result<std::fs::File, std::io::error::Error>" = type { [0 x i32], i32, [5 x i32] }
%"std::fs::OpenOptions" = type { [0 x i32], %"std::sys::unix::fs::OpenOptions", [0 x i32] }
%"std::sys::unix::fs::OpenOptions" = type { [0 x i32], i32, [0 x i16], i16, [0 x i8], i8, [0 x i8], i8, [0 x i8], i8, [0 x i8], i8, [0 x i8], i8, [0 x i8], i8, [0 x i8] }
%"std::path::Path" = type { [0 x i8], %"std::ffi::os_str::OsStr" }
%"core::result::Result<(), std::io::error::Error>" = type { [0 x i8], i8, [15 x i8] }
%"core::result::Result<usize, std::io::error::Error>" = type { [0 x i64], i64, [2 x i64] }
%"core::result::Result<(), std::io::error::Error>::Ok" = type { [0 x i8], {}, [0 x i8] }
%"core::result::Result<usize, std::io::error::Error>::Ok" = type { [1 x i64], i64, [0 x i64] }
%"core::result::Result<(), std::io::error::Error>::Err" = type { [0 x i64], %"std::io::error::Error", [0 x i64] }
%"core::result::Result<usize, std::io::error::Error>::Err" = type { [1 x i64], %"std::io::error::Error", [0 x i64] }
%"core::result::Result<alloc::string::String, std::env::VarError>" = type { [0 x i64], i64, [3 x i64] }
%"std::path::PathBuf" = type { [0 x i64], %"std::ffi::os_str::OsString", [0 x i64] }
%"std::process::Command" = type { [0 x i64], %"std::sys::unix::process::process_common::Command", [0 x i64] }
%"std::sys::unix::process::process_common::Command" = type { [0 x i64], { i8*, i64 }, [0 x i64], %"alloc::vec::Vec<std::ffi::c_str::CString>", [0 x i64], %"std::sys::unix::process::process_common::Argv", [0 x i64], %"std::sys_common::process::CommandEnv", [0 x i64], { i8*, i64 }, [0 x i64], %"alloc::vec::Vec<alloc::boxed::Box<core::ops::function::FnMut<(), Output=core::result::Result<(), std::io::error::Error>>>>", [0 x i32], { i32, i32 }, [0 x i32], { i32, i32 }, [0 x i32], { i32, i32 }, [0 x i32], { i32, i32 }, [0 x i32], { i32, i32 }, [0 x i8], i8, [7 x i8] }
%"alloc::vec::Vec<std::ffi::c_str::CString>" = type { [0 x i64], { i64*, i64 }, [0 x i64], i64, [0 x i64] }
%"std::sys::unix::process::process_common::Argv" = type { [0 x i64], %"alloc::vec::Vec<*const i8>", [0 x i64] }
%"alloc::vec::Vec<*const i8>" = type { [0 x i64], { i64*, i64 }, [0 x i64], i64, [0 x i64] }
%"std::sys_common::process::CommandEnv" = type { [0 x i64], %"alloc::collections::btree::map::BTreeMap<std::ffi::os_str::OsString, core::option::Option<std::ffi::os_str::OsString>>", [0 x i8], i8, [0 x i8], i8, [6 x i8] }
%"alloc::vec::Vec<alloc::boxed::Box<core::ops::function::FnMut<(), Output=core::result::Result<(), std::io::error::Error>>>>" = type { [0 x i64], { i64*, i64 }, [0 x i64], i64, [0 x i64] }
%"alloc::collections::btree::node::NodeRef<alloc::collections::btree::node::marker::Immut, std::ffi::os_str::OsString, core::option::Option<std::ffi::os_str::OsString>, alloc::collections::btree::node::marker::Leaf>" = type { [0 x i8], %"core::marker::PhantomData<(alloc::collections::btree::node::marker::Immut, alloc::collections::btree::node::marker::Leaf)>", [0 x i8], i64, [0 x i64], i64*, [0 x i64], { i64*, i64 }*, [0 x i64] }
%"core::marker::PhantomData<(alloc::collections::btree::node::marker::Immut, alloc::collections::btree::node::marker::Leaf)>" = type {}
%"alloc::collections::btree::node::NodeRef<alloc::collections::btree::node::marker::Immut, std::ffi::os_str::OsString, core::option::Option<std::ffi::os_str::OsString>, alloc::collections::btree::node::marker::Internal>" = type { [0 x i8], %"core::marker::PhantomData<(alloc::collections::btree::node::marker::Immut, alloc::collections::btree::node::marker::Internal)>", [0 x i8], i64, [0 x i64], i64*, [0 x i64], { i64*, i64 }*, [0 x i64] }
%"core::marker::PhantomData<(alloc::collections::btree::node::marker::Immut, alloc::collections::btree::node::marker::Internal)>" = type {}
%"core::fmt::Void" = type { [0 x i8], {}, [0 x i8], %"core::marker::PhantomData<*mut core::ops::function::Fn<(), Output=()>>", [0 x i8] }
%"core::marker::PhantomData<*mut core::ops::function::Fn<(), Output=()>>" = type {}
%"core::fmt::Arguments" = type { [0 x i64], { [0 x { [0 x i8]*, i64 }]*, i64 }, [0 x i64], { i64*, i64 }, [0 x i64], { [0 x { i8*, i8* }]*, i64 }, [0 x i64] }
%"core::mem::manually_drop::ManuallyDrop<alloc::collections::btree::map::BTreeMap<std::ffi::os_str::OsString, core::option::Option<std::ffi::os_str::OsString>>>" = type { [0 x i64], %"alloc::collections::btree::map::BTreeMap<std::ffi::os_str::OsString, core::option::Option<std::ffi::os_str::OsString>>", [0 x i64] }
%"core::option::Option<usize>::Some" = type { [1 x i64], i64, [0 x i64] }
%"std::env::VarError" = type { [0 x i64], {}*, [2 x i64] }
%"std::env::VarError::NotUnicode" = type { [0 x i64], %"std::ffi::os_str::OsString", [0 x i64] }
%"std::process::Output" = type { [0 x i64], %"alloc::vec::Vec<u8>", [0 x i64], %"alloc::vec::Vec<u8>", [0 x i32], i32, [1 x i32] }
%"std::sys::unix::process::process_common::Stdio::Fd" = type { [1 x i32], i32, [0 x i32] }
%"core::result::Result<alloc::string::String, alloc::string::FromUtf8Error>" = type { [0 x i64], i64, [5 x i64] }
%"core::result::Result<alloc::string::String, alloc::string::FromUtf8Error>::Ok" = type { [1 x i64], %"alloc::string::String", [0 x i64] }
%"core::result::Result<alloc::string::String, alloc::string::FromUtf8Error>::Err" = type { [1 x i64], %"alloc::string::FromUtf8Error", [0 x i64] }
%"alloc::string::FromUtf8Error" = type { [0 x i64], %"alloc::vec::Vec<u8>", [0 x i64], %"core::str::Utf8Error", [0 x i64] }
%"core::str::Utf8Error" = type { [0 x i64], i64, [0 x i8], { i8, i8 }, [6 x i8] }
%"core::result::Result<alloc::string::String, std::env::VarError>::Ok" = type { [1 x i64], %"alloc::string::String", [0 x i64] }
%"core::result::Result<alloc::string::String, std::env::VarError>::Err" = type { [1 x i64], %"std::env::VarError", [0 x i64] }
%"core::option::Option<std::ffi::os_str::OsString>::Some" = type { [0 x i64], %"std::ffi::os_str::OsString", [0 x i64] }
%"std::io::error::Custom" = type { [0 x i64], { {}*, [3 x i64]* }, [0 x i8], i8, [7 x i8] }
%"std::io::error::Repr::Custom" = type { [1 x i64], %"std::io::error::Custom"*, [0 x i64] }
%"core::ptr::Repr<core::option::Option<std::ffi::os_str::OsString>>" = type { [2 x i64] }
%"core::ptr::Repr<u8>" = type { [2 x i64] }
%"core::ptr::Repr<std::ffi::os_str::OsString>" = type { [2 x i64] }
%"core::ptr::Repr<std::ffi::c_str::CString>" = type { [2 x i64] }
%"core::ptr::Repr<*const i8>" = type { [2 x i64] }
%"core::ptr::Repr<alloc::boxed::Box<core::ops::function::FnMut<(), Output=core::result::Result<(), std::io::error::Error>>>>" = type { [2 x i64] }
%"alloc::collections::btree::node::NodeHeader<std::ffi::os_str::OsString, core::option::Option<std::ffi::os_str::OsString>>" = type { [0 x i64], %"alloc::collections::btree::node::InternalNode<std::ffi::os_str::OsString, core::option::Option<std::ffi::os_str::OsString>>"*, [0 x i16], i16, [0 x i16], i16, [2 x i16] }
%"core::mem::manually_drop::ManuallyDrop<core::option::Option<std::ffi::os_str::OsString>>" = type { [0 x i64], %"core::option::Option<std::ffi::os_str::OsString>", [0 x i64] }
%"core::mem::manually_drop::ManuallyDrop<alloc::collections::btree::node::Handle<alloc::collections::btree::node::NodeRef<alloc::collections::btree::node::marker::Owned, std::ffi::os_str::OsString, core::option::Option<std::ffi::os_str::OsString>, alloc::collections::btree::node::marker::Leaf>, alloc::collections::btree::node::marker::Edge>>" = type { [0 x i64], %"alloc::collections::btree::node::Handle<alloc::collections::btree::node::NodeRef<alloc::collections::btree::node::marker::Owned, std::ffi::os_str::OsString, core::option::Option<std::ffi::os_str::OsString>, alloc::collections::btree::node::marker::Leaf>, alloc::collections::btree::node::marker::Edge>", [0 x i64] }
%"core::mem::maybe_uninit::MaybeUninit<alloc::collections::btree::node::Handle<alloc::collections::btree::node::NodeRef<alloc::collections::btree::node::marker::Owned, std::ffi::os_str::OsString, core::option::Option<std::ffi::os_str::OsString>, alloc::collections::btree::node::marker::Leaf>, alloc::collections::btree::node::marker::Edge>>" = type { [4 x i64] }
%"core::mem::manually_drop::ManuallyDrop<std::ffi::os_str::OsString>" = type { [0 x i64], %"std::ffi::os_str::OsString", [0 x i64] }
%"core::mem::manually_drop::ManuallyDrop<alloc::collections::btree::node::NodeRef<alloc::collections::btree::node::marker::Immut, std::ffi::os_str::OsString, core::option::Option<std::ffi::os_str::OsString>, alloc::collections::btree::node::marker::Internal>>" = type { [0 x i64], %"alloc::collections::btree::node::NodeRef<alloc::collections::btree::node::marker::Immut, std::ffi::os_str::OsString, core::option::Option<std::ffi::os_str::OsString>, alloc::collections::btree::node::marker::Internal>", [0 x i64] }
%"core::mem::maybe_uninit::MaybeUninit<alloc::collections::btree::node::NodeRef<alloc::collections::btree::node::marker::Immut, std::ffi::os_str::OsString, core::option::Option<std::ffi::os_str::OsString>, alloc::collections::btree::node::marker::Internal>>" = type { [3 x i64] }
%"core::mem::maybe_uninit::MaybeUninit<alloc::collections::btree::map::BTreeMap<std::ffi::os_str::OsString, core::option::Option<std::ffi::os_str::OsString>>>" = type { [3 x i64] }
%"core::mem::manually_drop::ManuallyDrop<alloc::collections::btree::node::NodeRef<alloc::collections::btree::node::marker::Immut, std::ffi::os_str::OsString, core::option::Option<std::ffi::os_str::OsString>, alloc::collections::btree::node::marker::Leaf>>" = type { [0 x i64], %"alloc::collections::btree::node::NodeRef<alloc::collections::btree::node::marker::Immut, std::ffi::os_str::OsString, core::option::Option<std::ffi::os_str::OsString>, alloc::collections::btree::node::marker::Leaf>", [0 x i64] }
%"core::mem::maybe_uninit::MaybeUninit<alloc::collections::btree::node::NodeRef<alloc::collections::btree::node::marker::Immut, std::ffi::os_str::OsString, core::option::Option<std::ffi::os_str::OsString>, alloc::collections::btree::node::marker::Leaf>>" = type { [3 x i64] }
%"core::marker::PhantomData<u8>" = type {}
%"core::result::Result<alloc::string::String, core::convert::Infallible>::Ok" = type { [0 x i64], %"alloc::string::String", [0 x i64] }
%"core::panic::Location" = type { [0 x i64], { [0 x i8]*, i64 }, [0 x i32], i32, [0 x i32], i32, [0 x i32] }
%"core::iter::traits::iterator::Iterator::fold::ok::{{closure}}<(), (std::ffi::os_str::OsString, core::option::Option<std::ffi::os_str::OsString>), core::iter::traits::iterator::Iterator::for_each::call::{{closure}}<(std::ffi::os_str::OsString, core::option::Option<std::ffi::os_str::OsString>), fn((std::ffi::os_str::OsString, core::option::Option<std::ffi::os_str::OsString>))>>" = type { [0 x i8], %"core::iter::traits::iterator::Iterator::for_each::call::{{closure}}<(std::ffi::os_str::OsString, core::option::Option<std::ffi::os_str::OsString>), fn((std::ffi::os_str::OsString, core::option::Option<std::ffi::os_str::OsString>))>", [0 x i8] }
%"core::iter::traits::iterator::Iterator::for_each::call::{{closure}}<(std::ffi::os_str::OsString, core::option::Option<std::ffi::os_str::OsString>), fn((std::ffi::os_str::OsString, core::option::Option<std::ffi::os_str::OsString>))>" = type { [0 x i8], {}, [0 x i8] }
%"core::result::Result<(), !>::Ok" = type { [0 x i8], {}, [0 x i8] }
%"core::result::Result<core::alloc::Layout, core::alloc::LayoutErr>::Err" = type { [0 x i8], %"core::alloc::LayoutErr", [0 x i8] }
%"core::alloc::{{impl}}::array::{{closure}}<u8>" = type {}
%"core::result::Result<(core::alloc::Layout, usize), core::alloc::LayoutErr>" = type { [1 x i64], i64, [1 x i64] }
%"core::result::Result<usize, core::alloc::LayoutErr>::Ok" = type { [1 x i64], i64, [0 x i64] }
%"core::result::Result<(core::alloc::Layout, usize), core::alloc::LayoutErr>::Ok" = type { [0 x i64], { [0 x i64], { i64, i64 }, [0 x i64], i64, [0 x i64] }, [0 x i64] }
%"core::marker::PhantomData<&u8>" = type {}
%"alloc::collections::btree::node::Handle<alloc::collections::btree::node::NodeRef<alloc::collections::btree::node::marker::Owned, std::ffi::os_str::OsString, core::option::Option<std::ffi::os_str::OsString>, alloc::collections::btree::node::marker::Internal>, alloc::collections::btree::node::marker::Edge>" = type { [0 x i8], %"core::marker::PhantomData<alloc::collections::btree::node::marker::Edge>", [0 x i8], %"alloc::collections::btree::node::NodeRef<alloc::collections::btree::node::marker::Owned, std::ffi::os_str::OsString, core::option::Option<std::ffi::os_str::OsString>, alloc::collections::btree::node::marker::Internal>", [0 x i64], i64, [0 x i64] }
%"alloc::collections::btree::node::NodeRef<alloc::collections::btree::node::marker::Owned, std::ffi::os_str::OsString, core::option::Option<std::ffi::os_str::OsString>, alloc::collections::btree::node::marker::Internal>" = type { [0 x i8], %"core::marker::PhantomData<(alloc::collections::btree::node::marker::Owned, alloc::collections::btree::node::marker::Internal)>", [0 x i8], i64, [0 x i64], i64*, [0 x i64], { i64*, i64 }*, [0 x i64] }
%"core::marker::PhantomData<(alloc::collections::btree::node::marker::Owned, alloc::collections::btree::node::marker::Internal)>" = type {}
%"core::option::Option<alloc::collections::btree::node::Handle<alloc::collections::btree::node::NodeRef<alloc::collections::btree::node::marker::Owned, std::ffi::os_str::OsString, core::option::Option<std::ffi::os_str::OsString>, alloc::collections::btree::node::marker::Internal>, alloc::collections::btree::node::marker::Edge>>" = type { [1 x i64], {}*, [2 x i64] }
%"core::option::Option<alloc::collections::btree::node::Handle<alloc::collections::btree::node::NodeRef<alloc::collections::btree::node::marker::Owned, std::ffi::os_str::OsString, core::option::Option<std::ffi::os_str::OsString>, alloc::collections::btree::node::marker::Internal>, alloc::collections::btree::node::marker::Edge>>::Some" = type { [0 x i64], %"alloc::collections::btree::node::Handle<alloc::collections::btree::node::NodeRef<alloc::collections::btree::node::marker::Owned, std::ffi::os_str::OsString, core::option::Option<std::ffi::os_str::OsString>, alloc::collections::btree::node::marker::Internal>, alloc::collections::btree::node::marker::Edge>", [0 x i64] }
%"core::result::Result<core::ptr::non_null::NonNull<u8>, core::alloc::AllocErr>::Err" = type { [0 x i8], %"core::alloc::AllocErr", [0 x i8] }
%"core::alloc::AllocErr" = type {}
%"core::result::Result<usize, core::alloc::LayoutErr>::Err" = type { [8 x i8], %"core::alloc::LayoutErr", [0 x i8] }
%"core::result::Result<usize, alloc::collections::TryReserveError>" = type { [0 x i64], i64, [2 x i64] }
%"core::result::Result<usize, alloc::collections::TryReserveError>::Err" = type { [1 x i64], { i64, i64 }, [0 x i64] }
%"core::result::Result<usize, alloc::collections::TryReserveError>::Ok" = type { [1 x i64], i64, [0 x i64] }
%"core::result::Result<(), alloc::collections::TryReserveError>" = type { [0 x i64], i64, [2 x i64] }
%"core::result::Result<(), alloc::collections::TryReserveError>::Err" = type { [1 x i64], { i64, i64 }, [0 x i64] }
%"core::result::Result<alloc::collections::btree::node::Handle<alloc::collections::btree::node::NodeRef<alloc::collections::btree::node::marker::Owned, std::ffi::os_str::OsString, core::option::Option<std::ffi::os_str::OsString>, alloc::collections::btree::node::marker::Internal>, alloc::collections::btree::node::marker::Edge>, alloc::collections::btree::node::NodeRef<alloc::collections::btree::node::marker::Owned, std::ffi::os_str::OsString, core::option::Option<std::ffi::os_str::OsString>, alloc::collections::btree::node::marker::Internal>>" = type { [0 x i64], i64, [4 x i64] }
%"core::result::Result<alloc::collections::btree::node::Handle<alloc::collections::btree::node::NodeRef<alloc::collections::btree::node::marker::Owned, std::ffi::os_str::OsString, core::option::Option<std::ffi::os_str::OsString>, alloc::collections::btree::node::marker::Internal>, alloc::collections::btree::node::marker::Edge>, alloc::collections::btree::node::NodeRef<alloc::collections::btree::node::marker::Owned, std::ffi::os_str::OsString, core::option::Option<std::ffi::os_str::OsString>, alloc::collections::btree::node::marker::Internal>>::Ok" = type { [1 x i64], %"alloc::collections::btree::node::Handle<alloc::collections::btree::node::NodeRef<alloc::collections::btree::node::marker::Owned, std::ffi::os_str::OsString, core::option::Option<std::ffi::os_str::OsString>, alloc::collections::btree::node::marker::Internal>, alloc::collections::btree::node::marker::Edge>", [0 x i64] }
%"core::result::Result<alloc::collections::btree::node::Handle<alloc::collections::btree::node::NodeRef<alloc::collections::btree::node::marker::Owned, std::ffi::os_str::OsString, core::option::Option<std::ffi::os_str::OsString>, alloc::collections::btree::node::marker::Internal>, alloc::collections::btree::node::marker::Edge>, alloc::collections::btree::node::NodeRef<alloc::collections::btree::node::marker::Owned, std::ffi::os_str::OsString, core::option::Option<std::ffi::os_str::OsString>, alloc::collections::btree::node::marker::Leaf>>" = type { [0 x i64], i64, [4 x i64] }
%"core::result::Result<alloc::collections::btree::node::Handle<alloc::collections::btree::node::NodeRef<alloc::collections::btree::node::marker::Owned, std::ffi::os_str::OsString, core::option::Option<std::ffi::os_str::OsString>, alloc::collections::btree::node::marker::Internal>, alloc::collections::btree::node::marker::Edge>, alloc::collections::btree::node::NodeRef<alloc::collections::btree::node::marker::Owned, std::ffi::os_str::OsString, core::option::Option<std::ffi::os_str::OsString>, alloc::collections::btree::node::marker::Leaf>>::Ok" = type { [1 x i64], %"alloc::collections::btree::node::Handle<alloc::collections::btree::node::NodeRef<alloc::collections::btree::node::marker::Owned, std::ffi::os_str::OsString, core::option::Option<std::ffi::os_str::OsString>, alloc::collections::btree::node::marker::Internal>, alloc::collections::btree::node::marker::Edge>", [0 x i64] }
%"core::result::Result<std::process::Output, std::io::error::Error>" = type { [0 x i64], i64, [7 x i64] }
%"core::result::Result<std::process::Output, std::io::error::Error>::Err" = type { [1 x i64], %"std::io::error::Error", [0 x i64] }
%"core::result::Result<std::process::Output, std::io::error::Error>::Ok" = type { [1 x i64], %"std::process::Output", [0 x i64] }
%"core::result::Result<std::fs::File, std::io::error::Error>::Err" = type { [1 x i64], %"std::io::error::Error", [0 x i64] }
%"core::result::Result<std::fs::File, std::io::error::Error>::Ok" = type { [1 x i32], i32, [0 x i32] }
%"core::result::Result<core::alloc::Layout, alloc::collections::TryReserveError>" = type { [0 x i64], i64, [2 x i64] }
%"core::result::Result<core::alloc::Layout, alloc::collections::TryReserveError>::Ok" = type { [1 x i64], { i64, i64 }, [0 x i64] }
%"core::result::Result<core::alloc::Layout, alloc::collections::TryReserveError>::Err" = type { [1 x i64], { i64, i64 }, [0 x i64] }
%"alloc::collections::btree::node::Handle<alloc::collections::btree::node::NodeRef<alloc::collections::btree::node::marker::Immut, std::ffi::os_str::OsString, core::option::Option<std::ffi::os_str::OsString>, alloc::collections::btree::node::marker::Internal>, alloc::collections::btree::node::marker::KV>" = type { [0 x i8], %"core::marker::PhantomData<alloc::collections::btree::node::marker::KV>", [0 x i8], %"alloc::collections::btree::node::NodeRef<alloc::collections::btree::node::marker::Immut, std::ffi::os_str::OsString, core::option::Option<std::ffi::os_str::OsString>, alloc::collections::btree::node::marker::Internal>", [0 x i64], i64, [0 x i64] }
%"core::marker::PhantomData<alloc::collections::btree::node::marker::KV>" = type {}
%"alloc::collections::btree::node::Handle<alloc::collections::btree::node::NodeRef<alloc::collections::btree::node::marker::Owned, std::ffi::os_str::OsString, core::option::Option<std::ffi::os_str::OsString>, alloc::collections::btree::node::marker::Internal>, alloc::collections::btree::node::marker::KV>" = type { [0 x i8], %"core::marker::PhantomData<alloc::collections::btree::node::marker::KV>", [0 x i8], %"alloc::collections::btree::node::NodeRef<alloc::collections::btree::node::marker::Owned, std::ffi::os_str::OsString, core::option::Option<std::ffi::os_str::OsString>, alloc::collections::btree::node::marker::Internal>", [0 x i64], i64, [0 x i64] }
%"alloc::collections::btree::node::Handle<alloc::collections::btree::node::NodeRef<alloc::collections::btree::node::marker::Immut, std::ffi::os_str::OsString, core::option::Option<std::ffi::os_str::OsString>, alloc::collections::btree::node::marker::Leaf>, alloc::collections::btree::node::marker::KV>" = type { [0 x i8], %"core::marker::PhantomData<alloc::collections::btree::node::marker::KV>", [0 x i8], %"alloc::collections::btree::node::NodeRef<alloc::collections::btree::node::marker::Immut, std::ffi::os_str::OsString, core::option::Option<std::ffi::os_str::OsString>, alloc::collections::btree::node::marker::Leaf>", [0 x i64], i64, [0 x i64] }
%"alloc::collections::btree::node::Handle<alloc::collections::btree::node::NodeRef<alloc::collections::btree::node::marker::Owned, std::ffi::os_str::OsString, core::option::Option<std::ffi::os_str::OsString>, alloc::collections::btree::node::marker::Leaf>, alloc::collections::btree::node::marker::KV>" = type { [0 x i8], %"core::marker::PhantomData<alloc::collections::btree::node::marker::KV>", [0 x i8], %"alloc::collections::btree::node::NodeRef<alloc::collections::btree::node::marker::Owned, std::ffi::os_str::OsString, core::option::Option<std::ffi::os_str::OsString>, alloc::collections::btree::node::marker::Leaf>", [0 x i64], i64, [0 x i64] }
%"alloc::alloc::Global" = type {}
%"core::result::Result<alloc::collections::btree::node::Handle<alloc::collections::btree::node::NodeRef<alloc::collections::btree::node::marker::Owned, std::ffi::os_str::OsString, core::option::Option<std::ffi::os_str::OsString>, alloc::collections::btree::node::marker::Leaf>, alloc::collections::btree::node::marker::KV>, alloc::collections::btree::node::Handle<alloc::collections::btree::node::NodeRef<alloc::collections::btree::node::marker::Owned, std::ffi::os_str::OsString, core::option::Option<std::ffi::os_str::OsString>, alloc::collections::btree::node::marker::Leaf>, alloc::collections::btree::node::marker::Edge>>" = type { [0 x i64], i64, [4 x i64] }
%"core::result::Result<alloc::collections::btree::node::Handle<alloc::collections::btree::node::NodeRef<alloc::collections::btree::node::marker::Owned, std::ffi::os_str::OsString, core::option::Option<std::ffi::os_str::OsString>, alloc::collections::btree::node::marker::Leaf>, alloc::collections::btree::node::marker::KV>, alloc::collections::btree::node::Handle<alloc::collections::btree::node::NodeRef<alloc::collections::btree::node::marker::Owned, std::ffi::os_str::OsString, core::option::Option<std::ffi::os_str::OsString>, alloc::collections::btree::node::marker::Leaf>, alloc::collections::btree::node::marker::Edge>>::Err" = type { [1 x i64], %"alloc::collections::btree::node::Handle<alloc::collections::btree::node::NodeRef<alloc::collections::btree::node::marker::Owned, std::ffi::os_str::OsString, core::option::Option<std::ffi::os_str::OsString>, alloc::collections::btree::node::marker::Leaf>, alloc::collections::btree::node::marker::Edge>", [0 x i64] }
%"core::result::Result<alloc::collections::btree::node::Handle<alloc::collections::btree::node::NodeRef<alloc::collections::btree::node::marker::Owned, std::ffi::os_str::OsString, core::option::Option<std::ffi::os_str::OsString>, alloc::collections::btree::node::marker::Leaf>, alloc::collections::btree::node::marker::KV>, alloc::collections::btree::node::Handle<alloc::collections::btree::node::NodeRef<alloc::collections::btree::node::marker::Owned, std::ffi::os_str::OsString, core::option::Option<std::ffi::os_str::OsString>, alloc::collections::btree::node::marker::Leaf>, alloc::collections::btree::node::marker::Edge>>::Ok" = type { [1 x i64], %"alloc::collections::btree::node::Handle<alloc::collections::btree::node::NodeRef<alloc::collections::btree::node::marker::Owned, std::ffi::os_str::OsString, core::option::Option<std::ffi::os_str::OsString>, alloc::collections::btree::node::marker::Leaf>, alloc::collections::btree::node::marker::KV>", [0 x i64] }
%"core::result::Result<alloc::collections::btree::node::Handle<alloc::collections::btree::node::NodeRef<alloc::collections::btree::node::marker::Owned, std::ffi::os_str::OsString, core::option::Option<std::ffi::os_str::OsString>, alloc::collections::btree::node::marker::Internal>, alloc::collections::btree::node::marker::KV>, alloc::collections::btree::node::Handle<alloc::collections::btree::node::NodeRef<alloc::collections::btree::node::marker::Owned, std::ffi::os_str::OsString, core::option::Option<std::ffi::os_str::OsString>, alloc::collections::btree::node::marker::Internal>, alloc::collections::btree::node::marker::Edge>>" = type { [0 x i64], i64, [4 x i64] }
%"core::result::Result<alloc::collections::btree::node::Handle<alloc::collections::btree::node::NodeRef<alloc::collections::btree::node::marker::Owned, std::ffi::os_str::OsString, core::option::Option<std::ffi::os_str::OsString>, alloc::collections::btree::node::marker::Internal>, alloc::collections::btree::node::marker::KV>, alloc::collections::btree::node::Handle<alloc::collections::btree::node::NodeRef<alloc::collections::btree::node::marker::Owned, std::ffi::os_str::OsString, core::option::Option<std::ffi::os_str::OsString>, alloc::collections::btree::node::marker::Internal>, alloc::collections::btree::node::marker::Edge>>::Err" = type { [1 x i64], %"alloc::collections::btree::node::Handle<alloc::collections::btree::node::NodeRef<alloc::collections::btree::node::marker::Owned, std::ffi::os_str::OsString, core::option::Option<std::ffi::os_str::OsString>, alloc::collections::btree::node::marker::Internal>, alloc::collections::btree::node::marker::Edge>", [0 x i64] }
%"core::result::Result<alloc::collections::btree::node::Handle<alloc::collections::btree::node::NodeRef<alloc::collections::btree::node::marker::Owned, std::ffi::os_str::OsString, core::option::Option<std::ffi::os_str::OsString>, alloc::collections::btree::node::marker::Internal>, alloc::collections::btree::node::marker::KV>, alloc::collections::btree::node::Handle<alloc::collections::btree::node::NodeRef<alloc::collections::btree::node::marker::Owned, std::ffi::os_str::OsString, core::option::Option<std::ffi::os_str::OsString>, alloc::collections::btree::node::marker::Internal>, alloc::collections::btree::node::marker::Edge>>::Ok" = type { [1 x i64], %"alloc::collections::btree::node::Handle<alloc::collections::btree::node::NodeRef<alloc::collections::btree::node::marker::Owned, std::ffi::os_str::OsString, core::option::Option<std::ffi::os_str::OsString>, alloc::collections::btree::node::marker::Internal>, alloc::collections::btree::node::marker::KV>", [0 x i64] }
%"core::result::Result<alloc::collections::btree::node::Handle<alloc::collections::btree::node::NodeRef<alloc::collections::btree::node::marker::Owned, std::ffi::os_str::OsString, core::option::Option<std::ffi::os_str::OsString>, alloc::collections::btree::node::marker::Internal>, alloc::collections::btree::node::marker::Edge>, alloc::collections::btree::node::NodeRef<alloc::collections::btree::node::marker::Owned, std::ffi::os_str::OsString, core::option::Option<std::ffi::os_str::OsString>, alloc::collections::btree::node::marker::Internal>>::Err" = type { [1 x i64], %"alloc::collections::btree::node::NodeRef<alloc::collections::btree::node::marker::Owned, std::ffi::os_str::OsString, core::option::Option<std::ffi::os_str::OsString>, alloc::collections::btree::node::marker::Internal>", [0 x i64] }
%"core::result::Result<alloc::collections::btree::node::Handle<alloc::collections::btree::node::NodeRef<alloc::collections::btree::node::marker::Owned, std::ffi::os_str::OsString, core::option::Option<std::ffi::os_str::OsString>, alloc::collections::btree::node::marker::Internal>, alloc::collections::btree::node::marker::Edge>, alloc::collections::btree::node::NodeRef<alloc::collections::btree::node::marker::Owned, std::ffi::os_str::OsString, core::option::Option<std::ffi::os_str::OsString>, alloc::collections::btree::node::marker::Leaf>>::Err" = type { [1 x i64], %"alloc::collections::btree::node::NodeRef<alloc::collections::btree::node::marker::Owned, std::ffi::os_str::OsString, core::option::Option<std::ffi::os_str::OsString>, alloc::collections::btree::node::marker::Leaf>", [0 x i64] }
%"alloc::collections::btree::node::ForceResult<alloc::collections::btree::node::NodeRef<alloc::collections::btree::node::marker::Owned, std::ffi::os_str::OsString, core::option::Option<std::ffi::os_str::OsString>, alloc::collections::btree::node::marker::Leaf>, alloc::collections::btree::node::NodeRef<alloc::collections::btree::node::marker::Owned, std::ffi::os_str::OsString, core::option::Option<std::ffi::os_str::OsString>, alloc::collections::btree::node::marker::Internal>>" = type { [0 x i64], i64, [3 x i64] }
%"alloc::collections::btree::node::ForceResult<alloc::collections::btree::node::NodeRef<alloc::collections::btree::node::marker::Owned, std::ffi::os_str::OsString, core::option::Option<std::ffi::os_str::OsString>, alloc::collections::btree::node::marker::Leaf>, alloc::collections::btree::node::NodeRef<alloc::collections::btree::node::marker::Owned, std::ffi::os_str::OsString, core::option::Option<std::ffi::os_str::OsString>, alloc::collections::btree::node::marker::Internal>>::Internal" = type { [1 x i64], %"alloc::collections::btree::node::NodeRef<alloc::collections::btree::node::marker::Owned, std::ffi::os_str::OsString, core::option::Option<std::ffi::os_str::OsString>, alloc::collections::btree::node::marker::Internal>", [0 x i64] }
%"alloc::collections::btree::node::ForceResult<alloc::collections::btree::node::NodeRef<alloc::collections::btree::node::marker::Owned, std::ffi::os_str::OsString, core::option::Option<std::ffi::os_str::OsString>, alloc::collections::btree::node::marker::Leaf>, alloc::collections::btree::node::NodeRef<alloc::collections::btree::node::marker::Owned, std::ffi::os_str::OsString, core::option::Option<std::ffi::os_str::OsString>, alloc::collections::btree::node::marker::Internal>>::Leaf" = type { [1 x i64], %"alloc::collections::btree::node::NodeRef<alloc::collections::btree::node::marker::Owned, std::ffi::os_str::OsString, core::option::Option<std::ffi::os_str::OsString>, alloc::collections::btree::node::marker::Leaf>", [0 x i64] }
%"core::result::Result<&str, core::str::Utf8Error>" = type { [0 x i64], i64, [2 x i64] }
%"core::result::Result<&str, core::str::Utf8Error>::Err" = type { [1 x i64], %"core::str::Utf8Error", [0 x i64] }
%"core::result::Result<(), alloc::collections::TryReserveError>::Ok" = type { [8 x i8], {}, [0 x i8] }
%"alloc::raw_vec::{{impl}}::allocate_in::{{closure}}<u8, alloc::alloc::Global>.0" = type {}
%"alloc::raw_vec::{{impl}}::allocate_in::{{closure}}<u8, alloc::alloc::Global>" = type {}
%"alloc::raw_vec::{{impl}}::reserve_internal::{{closure}}<u8, alloc::alloc::Global>" = type {}
%"core::result::Result<(core::alloc::Layout, usize), core::alloc::LayoutErr>::Err" = type { [0 x i8], %"core::alloc::LayoutErr", [0 x i8] }
%"core::result::Result<(), !>::Err" = type { [0 x i8] }
%"unwind::libunwind::_Unwind_Exception" = type { [0 x i64], i64, [0 x i64], void (i32, %"unwind::libunwind::_Unwind_Exception"*)*, [0 x i64], [6 x i64], [0 x i64] }
%"unwind::libunwind::_Unwind_Context" = type { [0 x i8] }

@0 = private unnamed_addr constant <{ [1 x i8] }> <{ [1 x i8] c"\0F" }>, align 1
@1 = private unnamed_addr constant <{ i8*, [0 x i8] }> <{ i8* getelementptr inbounds (<{ [1 x i8] }>, <{ [1 x i8] }>* @0, i32 0, i32 0, i32 0), [0 x i8] zeroinitializer }>, align 8
@2 = private unnamed_addr constant <{ [28 x i8] }> <{ [28 x i8] c"failed to write whole buffer" }>, align 1
@vtable.0 = private unnamed_addr constant { void (i8**)*, i64, i64, i32 (i8**)*, i32 (i8**)*, i32 (i8**)* } { void (i8**)* @_ZN4core3ptr13drop_in_place17h6e08c2439ca9673eE, i64 8, i64 8, i32 (i8**)* @"_ZN3std2rt10lang_start28_$u7b$$u7b$closure$u7d$$u7d$17h71f96d02a69c3991E", i32 (i8**)* @"_ZN3std2rt10lang_start28_$u7b$$u7b$closure$u7d$$u7d$17h71f96d02a69c3991E", i32 (i8**)* @"_ZN4core3ops8function6FnOnce40call_once$u7b$$u7b$vtable.shim$u7d$$u7d$17hd91a30f10ec804b2E" }, align 8
@vtable.1 = private unnamed_addr constant { void (%"std::error::{{impl}}::from::StringError"*)*, i64, i64, { i8*, i8* } (%"std::error::{{impl}}::from::StringError"*)*, i64 (%"std::error::{{impl}}::from::StringError"*)*, i64* (%"std::error::{{impl}}::from::StringError"*)*, { [0 x i8]*, i64 } (%"std::error::{{impl}}::from::StringError"*)*, { i8*, i8* } (%"std::error::{{impl}}::from::StringError"*)*, i1 (%"std::error::{{impl}}::from::StringError"*, %"core::fmt::Formatter"*)*, i1 (%"std::error::{{impl}}::from::StringError"*, %"core::fmt::Formatter"*)* } { void (%"std::error::{{impl}}::from::StringError"*)* @_ZN4core3ptr13drop_in_place17h9561bfe8f79346f6E, i64 24, i64 8, { i8*, i8* } (%"std::error::{{impl}}::from::StringError"*)* @_ZN3std5error5Error6source17ha4b8e670184235baE, i64 (%"std::error::{{impl}}::from::StringError"*)* @_ZN3std5error5Error7type_id17he016f7475e60945fE, i64* (%"std::error::{{impl}}::from::StringError"*)* @_ZN3std5error5Error9backtrace17hdca9b7465e59b922E, { [0 x i8]*, i64 } (%"std::error::{{impl}}::from::StringError"*)* @"_ZN243_$LT$std..error..$LT$impl$u20$core..convert..From$LT$alloc..string..String$GT$$u20$for$u20$alloc..boxed..Box$LT$dyn$u20$std..error..Error$u2b$core..marker..Send$u2b$core..marker..Sync$GT$$GT$..from..StringError$u20$as$u20$std..error..Error$GT$11description17h7a13a039dac815e6E", { i8*, i8* } (%"std::error::{{impl}}::from::StringError"*)* @_ZN3std5error5Error5cause17h78d4f47ab1e50866E, i1 (%"std::error::{{impl}}::from::StringError"*, %"core::fmt::Formatter"*)* @"_ZN244_$LT$std..error..$LT$impl$u20$core..convert..From$LT$alloc..string..String$GT$$u20$for$u20$alloc..boxed..Box$LT$dyn$u20$std..error..Error$u2b$core..marker..Send$u2b$core..marker..Sync$GT$$GT$..from..StringError$u20$as$u20$core..fmt..Display$GT$3fmt17hfa45e5b50ade9097E", i1 (%"std::error::{{impl}}::from::StringError"*, %"core::fmt::Formatter"*)* @"_ZN242_$LT$std..error..$LT$impl$u20$core..convert..From$LT$alloc..string..String$GT$$u20$for$u20$alloc..boxed..Box$LT$dyn$u20$std..error..Error$u2b$core..marker..Send$u2b$core..marker..Sync$GT$$GT$..from..StringError$u20$as$u20$core..fmt..Debug$GT$3fmt17h0417e5aaa56e15ffE" }, align 8
@3 = private unnamed_addr constant <{ [83 x i8] }> <{ [83 x i8] c"/rustc/8aa9d2014f4e5258f83b907e8431c59a33acdae7/src/libcore/iter/traits/iterator.rs" }>, align 1
@4 = private unnamed_addr constant <{ i8*, [16 x i8] }> <{ i8* getelementptr inbounds (<{ [83 x i8] }>, <{ [83 x i8] }>* @3, i32 0, i32 0, i32 0), [16 x i8] c"S\00\00\00\00\00\00\00\D3\07\00\00\09\00\00\00" }>, align 8
@5 = private unnamed_addr constant <{ [45 x i8] }> <{ [45 x i8] c"assertion failed: `(left == right)`\0A  left: `" }>, align 1
@6 = private unnamed_addr constant <{ [12 x i8] }> <{ [12 x i8] c"`,\0A right: `" }>, align 1
@7 = private unnamed_addr constant <{ [3 x i8] }> <{ [3 x i8] c"`: " }>, align 1
@8 = private unnamed_addr constant <{ i8*, [8 x i8], i8*, [8 x i8], i8*, [8 x i8] }> <{ i8* getelementptr inbounds (<{ [45 x i8] }>, <{ [45 x i8] }>* @5, i32 0, i32 0, i32 0), [8 x i8] c"-\00\00\00\00\00\00\00", i8* getelementptr inbounds (<{ [12 x i8] }>, <{ [12 x i8] }>* @6, i32 0, i32 0, i32 0), [8 x i8] c"\0C\00\00\00\00\00\00\00", i8* getelementptr inbounds (<{ [3 x i8] }>, <{ [3 x i8] }>* @7, i32 0, i32 0, i32 0), [8 x i8] c"\03\00\00\00\00\00\00\00" }>, align 8
@9 = private unnamed_addr constant <{ i8*, [0 x i8] }> <{ i8* bitcast (<{ i8*, [8 x i8], i8*, [8 x i8], i8*, [8 x i8] }>* @8 to i8*), [0 x i8] zeroinitializer }>, align 8
@10 = private unnamed_addr constant <{ [52 x i8] }> <{ [52 x i8] c"destination and source slices have different lengths" }>, align 1
@11 = private unnamed_addr constant <{ i8*, [8 x i8] }> <{ i8* getelementptr inbounds (<{ [52 x i8] }>, <{ [52 x i8] }>* @10, i32 0, i32 0, i32 0), [8 x i8] c"4\00\00\00\00\00\00\00" }>, align 8
@12 = private unnamed_addr constant <{ i8*, [0 x i8] }> <{ i8* bitcast (<{ i8*, [8 x i8] }>* @11 to i8*), [0 x i8] zeroinitializer }>, align 8
@13 = private unnamed_addr constant <{ [0 x i8] }> zeroinitializer, align 8
@14 = private unnamed_addr constant <{ i8*, [0 x i8] }> <{ i8* getelementptr inbounds (<{ [0 x i8] }>, <{ [0 x i8] }>* @13, i32 0, i32 0, i32 0), [0 x i8] zeroinitializer }>, align 8
@15 = private unnamed_addr constant <{ [73 x i8] }> <{ [73 x i8] c"/rustc/8aa9d2014f4e5258f83b907e8431c59a33acdae7/src/libcore/macros/mod.rs" }>, align 1
@16 = private unnamed_addr constant <{ i8*, [16 x i8] }> <{ i8* getelementptr inbounds (<{ [73 x i8] }>, <{ [73 x i8] }>* @15, i32 0, i32 0, i32 0), [16 x i8] c"I\00\00\00\00\00\00\00\12\00\00\00\0D\00\00\00" }>, align 8
@17 = private unnamed_addr constant <{ [43 x i8] }> <{ [43 x i8] c"called `Option::unwrap()` on a `None` value" }>, align 1
@vtable.2 = private unnamed_addr constant { void (%"std::io::error::Error"*)*, i64, i64, i1 (%"std::io::error::Error"*, %"core::fmt::Formatter"*)* } { void (%"std::io::error::Error"*)* @_ZN4core3ptr13drop_in_place17he9a4eba9167d52a3E, i64 16, i64 8, i1 (%"std::io::error::Error"*, %"core::fmt::Formatter"*)* @"_ZN58_$LT$std..io..error..Error$u20$as$u20$core..fmt..Debug$GT$3fmt17h04e296237e670ae4E" }, align 8
@18 = private unnamed_addr constant <{ [43 x i8] }> <{ [43 x i8] c"called `Result::unwrap()` on an `Err` value" }>, align 1
@vtable.3 = private unnamed_addr constant { void (%"core::alloc::LayoutErr"*)*, i64, i64, i1 (%"core::alloc::LayoutErr"*, %"core::fmt::Formatter"*)* } { void (%"core::alloc::LayoutErr"*)* @_ZN4core3ptr13drop_in_place17h90c8290daa725bbbE, i64 0, i64 1, i1 (%"core::alloc::LayoutErr"*, %"core::fmt::Formatter"*)* @"_ZN59_$LT$core..alloc..LayoutErr$u20$as$u20$core..fmt..Debug$GT$3fmt17h2d2319bb3e3f0f95E" }, align 8
@vtable.4 = private unnamed_addr constant { void (%"core::convert::Infallible"*)*, i64, i64, i1 (%"core::convert::Infallible"*, %"core::fmt::Formatter"*)* } { void (%"core::convert::Infallible"*)* @_ZN4core3ptr13drop_in_place17h4c9c8af814cd985bE, i64 0, i64 1, i1 (%"core::convert::Infallible"*, %"core::fmt::Formatter"*)* @"_ZN62_$LT$core..convert..Infallible$u20$as$u20$core..fmt..Debug$GT$3fmt17hdaa77585b008e0b7E" }, align 8
@vtable.5 = private unnamed_addr constant { void ({ [0 x i8] }*)*, i64, i64, i1 ({ [0 x i8] }*, %"core::fmt::Formatter"*)* } { void ({ [0 x i8] }*)* @_ZN4core3ptr13drop_in_place17hfd1dadd8099fcfa5E, i64 0, i64 1, i1 ({ [0 x i8] }*, %"core::fmt::Formatter"*)* @"_ZN42_$LT$$u21$$u20$as$u20$core..fmt..Debug$GT$3fmt17hf240fbd6384f2371E" }, align 8
@19 = private unnamed_addr constant <{ [40 x i8] }> <{ [40 x i8] c"assertion failed: !self.is_shared_root()" }>, align 1
@20 = private unnamed_addr constant <{ [30 x i8] }> <{ [30 x i8] c"<::core::macros::panic macros>" }>, align 1
@21 = private unnamed_addr constant <{ i8*, [16 x i8] }> <{ i8* getelementptr inbounds (<{ [30 x i8] }>, <{ [30 x i8] }>* @20, i32 0, i32 0, i32 0), [16 x i8] c"\1E\00\00\00\00\00\00\00\02\00\00\00\02\00\00\00" }>, align 8
@_ZN5alloc11collections5btree4node15EMPTY_ROOT_NODE17h026901639d4f958aE = external global %"alloc::collections::btree::node::NodeHeader<(), ()>"
@22 = private unnamed_addr constant <{ [71 x i8] }> <{ [71 x i8] c"/rustc/8aa9d2014f4e5258f83b907e8431c59a33acdae7/src/liballoc/raw_vec.rs" }>, align 1
@23 = private unnamed_addr constant <{ i8*, [16 x i8] }> <{ i8* getelementptr inbounds (<{ [71 x i8] }>, <{ [71 x i8] }>* @22, i32 0, i32 0, i32 0), [16 x i8] c"G\00\00\00\00\00\00\00W\00\00\00\1E\00\00\00" }>, align 8
@24 = private unnamed_addr constant <{ [40 x i8] }> <{ [40 x i8] c"internal error: entered unreachable code" }>, align 1
@25 = private unnamed_addr constant <{ [7 x i8] }> <{ [7 x i8] c"OUT_DIR" }>, align 1
@26 = private unnamed_addr constant <{ [12 x i8] }> <{ [12 x i8] c"/home/admin/" }>, align 1
@27 = private unnamed_addr constant <{ [8 x i8] }> <{ [8 x i8] c"build.rs" }>, align 1
@28 = private unnamed_addr constant <{ i8*, [16 x i8] }> <{ i8* getelementptr inbounds (<{ [8 x i8] }>, <{ [8 x i8] }>* @27, i32 0, i32 0, i32 0), [16 x i8] c"\08\00\00\00\00\00\00\00\08\00\00\00.\00\00\00" }>, align 8
@29 = private unnamed_addr constant <{ [12 x i8] }> <{ [12 x i8] c"commit_id.rs" }>, align 1
@30 = private unnamed_addr constant <{ [27 x i8] }> <{ [27 x i8] c"path:=====================:" }>, align 1
@31 = private unnamed_addr constant <{ [1 x i8] }> <{ [1 x i8] c"\0A" }>, align 1
@32 = private unnamed_addr constant <{ i8*, [8 x i8], i8*, [8 x i8] }> <{ i8* getelementptr inbounds (<{ [27 x i8] }>, <{ [27 x i8] }>* @30, i32 0, i32 0, i32 0), [8 x i8] c"\1B\00\00\00\00\00\00\00", i8* getelementptr inbounds (<{ [1 x i8] }>, <{ [1 x i8] }>* @31, i32 0, i32 0, i32 0), [8 x i8] c"\01\00\00\00\00\00\00\00" }>, align 8
@33 = private unnamed_addr constant <{ i8*, [0 x i8] }> <{ i8* bitcast (<{ i8*, [8 x i8], i8*, [8 x i8] }>* @32 to i8*), [0 x i8] zeroinitializer }>, align 8
@34 = private unnamed_addr constant <{ i8*, [16 x i8] }> <{ i8* getelementptr inbounds (<{ [8 x i8] }>, <{ [8 x i8] }>* @27, i32 0, i32 0, i32 0), [16 x i8] c"\08\00\00\00\00\00\00\00\0A\00\00\00/\00\00\00" }>, align 8
@35 = private unnamed_addr constant <{ i8*, [16 x i8] }> <{ i8* getelementptr inbounds (<{ [8 x i8] }>, <{ [8 x i8] }>* @27, i32 0, i32 0, i32 0), [16 x i8] c"\08\00\00\00\00\00\00\00\0B\00\00\00\14\00\00\00" }>, align 8
@36 = private unnamed_addr constant <{ [3 x i8] }> <{ [3 x i8] c"git" }>, align 1
@37 = private unnamed_addr constant <{ [9 x i8] }> <{ [9 x i8] c"rev-parse" }>, align 1
@38 = private unnamed_addr constant <{ [4 x i8] }> <{ [4 x i8] c"HEAD" }>, align 1
@39 = private unnamed_addr constant <{ [17 x i8] }> <{ [17 x i8] c"Failed git execed" }>, align 1
@40 = private unnamed_addr constant <{ i8*, [16 x i8] }> <{ i8* getelementptr inbounds (<{ [8 x i8] }>, <{ [8 x i8] }>* @27, i32 0, i32 0, i32 0), [16 x i8] c"\08\00\00\00\00\00\00\00\0C\00\00\00\12\00\00\00" }>, align 8
@41 = private unnamed_addr constant <{ [46 x i8] }> <{ [46 x i8] c"pub const CURRENT_COMMIT_ID : &'static str = \22" }>, align 1
@42 = private unnamed_addr constant <{ [2 x i8] }> <{ [2 x i8] c"\22;" }>, align 1
@43 = private unnamed_addr constant <{ i8*, [8 x i8], i8*, [8 x i8] }> <{ i8* getelementptr inbounds (<{ [46 x i8] }>, <{ [46 x i8] }>* @41, i32 0, i32 0, i32 0), [8 x i8] c".\00\00\00\00\00\00\00", i8* getelementptr inbounds (<{ [2 x i8] }>, <{ [2 x i8] }>* @42, i32 0, i32 0, i32 0), [8 x i8] c"\02\00\00\00\00\00\00\00" }>, align 8
@44 = private unnamed_addr constant <{ i8*, [0 x i8] }> <{ i8* bitcast (<{ i8*, [8 x i8], i8*, [8 x i8] }>* @43 to i8*), [0 x i8] zeroinitializer }>, align 8
@45 = private unnamed_addr constant <{ [10 x i8] }> <{ [10 x i8] c"invalid!!!" }>, align 1
@46 = private unnamed_addr constant <{ i8*, [16 x i8] }> <{ i8* getelementptr inbounds (<{ [8 x i8] }>, <{ [8 x i8] }>* @27, i32 0, i32 0, i32 0), [16 x i8] c"\08\00\00\00\00\00\00\00\0E\00\00\00`\00\00\00" }>, align 8

; <core::ops::range::RangeFrom<usize> as core::slice::SliceIndex<[T]>>::get_unchecked_mut
; Function Attrs: inlinehint uwtable
define internal { [0 x i8]*, i64 } @"_ZN103_$LT$core..ops..range..RangeFrom$LT$usize$GT$$u20$as$u20$core..slice..SliceIndex$LT$$u5b$T$u5d$$GT$$GT$17get_unchecked_mut17hf334d242b07122d4E"(i64 %self, [0 x i8]* nonnull align 1 %slice.0, i64 %slice.1) unnamed_addr #0 {
start:
  %_5 = alloca { i64, i64 }, align 8
; call core::slice::<impl [T]>::len
  %_7 = call i64 @"_ZN4core5slice29_$LT$impl$u20$$u5b$T$u5d$$GT$3len17h94132aff3fbee2b4E"([0 x i8]* noalias nonnull readonly align 1 %slice.0, i64 %slice.1)
  br label %bb1

bb1:                                              ; preds = %start
  %0 = bitcast { i64, i64 }* %_5 to i64*
  store i64 %self, i64* %0, align 8
  %1 = getelementptr inbounds { i64, i64 }, { i64, i64 }* %_5, i32 0, i32 1
  store i64 %_7, i64* %1, align 8
  %2 = getelementptr inbounds { i64, i64 }, { i64, i64 }* %_5, i32 0, i32 0
  %3 = load i64, i64* %2, align 8
  %4 = getelementptr inbounds { i64, i64 }, { i64, i64 }* %_5, i32 0, i32 1
  %5 = load i64, i64* %4, align 8
; call <core::ops::range::Range<usize> as core::slice::SliceIndex<[T]>>::get_unchecked_mut
  %6 = call { [0 x i8]*, i64 } @"_ZN99_$LT$core..ops..range..Range$LT$usize$GT$$u20$as$u20$core..slice..SliceIndex$LT$$u5b$T$u5d$$GT$$GT$17get_unchecked_mut17h238ce94180835e2cE"(i64 %3, i64 %5, [0 x i8]* nonnull align 1 %slice.0, i64 %slice.1)
  %_4.0 = extractvalue { [0 x i8]*, i64 } %6, 0
  %_4.1 = extractvalue { [0 x i8]*, i64 } %6, 1
  br label %bb2

bb2:                                              ; preds = %bb1
  %7 = insertvalue { [0 x i8]*, i64 } undef, [0 x i8]* %_4.0, 0
  %8 = insertvalue { [0 x i8]*, i64 } %7, i64 %_4.1, 1
  ret { [0 x i8]*, i64 } %8
}

; <core::ops::range::RangeFrom<usize> as core::slice::SliceIndex<[T]>>::index
; Function Attrs: inlinehint uwtable
define internal { [0 x i8]*, i64 } @"_ZN103_$LT$core..ops..range..RangeFrom$LT$usize$GT$$u20$as$u20$core..slice..SliceIndex$LT$$u5b$T$u5d$$GT$$GT$5index17h760fb05353533204E"(i64 %self, [0 x i8]* noalias nonnull readonly align 1 %slice.0, i64 %slice.1) unnamed_addr #0 {
start:
  %_4 = alloca { i64, i64 }, align 8
; call core::slice::<impl [T]>::len
  %_6 = call i64 @"_ZN4core5slice29_$LT$impl$u20$$u5b$T$u5d$$GT$3len17h94132aff3fbee2b4E"([0 x i8]* noalias nonnull readonly align 1 %slice.0, i64 %slice.1)
  br label %bb1

bb1:                                              ; preds = %start
  %0 = bitcast { i64, i64 }* %_4 to i64*
  store i64 %self, i64* %0, align 8
  %1 = getelementptr inbounds { i64, i64 }, { i64, i64 }* %_4, i32 0, i32 1
  store i64 %_6, i64* %1, align 8
  %2 = getelementptr inbounds { i64, i64 }, { i64, i64 }* %_4, i32 0, i32 0
  %3 = load i64, i64* %2, align 8
  %4 = getelementptr inbounds { i64, i64 }, { i64, i64 }* %_4, i32 0, i32 1
  %5 = load i64, i64* %4, align 8
; call <core::ops::range::Range<usize> as core::slice::SliceIndex<[T]>>::index
  %6 = call { [0 x i8]*, i64 } @"_ZN99_$LT$core..ops..range..Range$LT$usize$GT$$u20$as$u20$core..slice..SliceIndex$LT$$u5b$T$u5d$$GT$$GT$5index17hb4af85e10268efafE"(i64 %3, i64 %5, [0 x i8]* noalias nonnull readonly align 1 %slice.0, i64 %slice.1)
  %_3.0 = extractvalue { [0 x i8]*, i64 } %6, 0
  %_3.1 = extractvalue { [0 x i8]*, i64 } %6, 1
  br label %bb2

bb2:                                              ; preds = %bb1
  %7 = insertvalue { [0 x i8]*, i64 } undef, [0 x i8]* %_3.0, 0
  %8 = insertvalue { [0 x i8]*, i64 } %7, i64 %_3.1, 1
  ret { [0 x i8]*, i64 } %8
}

; <std::ffi::os_str::OsString as core::ops::index::Index<core::ops::range::RangeFull>>::index
; Function Attrs: inlinehint uwtable
define internal { %"std::ffi::os_str::OsStr"*, i64 } @"_ZN105_$LT$std..ffi..os_str..OsString$u20$as$u20$core..ops..index..Index$LT$core..ops..range..RangeFull$GT$$GT$5index17h6042584c707153c7E"(%"std::ffi::os_str::OsString"* noalias readonly align 8 dereferenceable(24) %self) unnamed_addr #0 {
start:
  %_6 = bitcast %"std::ffi::os_str::OsString"* %self to %"std::sys_common::os_str_bytes::Buf"*
; call std::sys_common::os_str_bytes::Buf::as_slice
  %0 = call { %"std::sys_common::os_str_bytes::Slice"*, i64 } @_ZN3std10sys_common12os_str_bytes3Buf8as_slice17h7edbd14374934716E(%"std::sys_common::os_str_bytes::Buf"* noalias readonly align 8 dereferenceable(24) %_6)
  %_5.0 = extractvalue { %"std::sys_common::os_str_bytes::Slice"*, i64 } %0, 0
  %_5.1 = extractvalue { %"std::sys_common::os_str_bytes::Slice"*, i64 } %0, 1
  br label %bb1

bb1:                                              ; preds = %start
; call std::ffi::os_str::OsStr::from_inner
  %1 = call { %"std::ffi::os_str::OsStr"*, i64 } @_ZN3std3ffi6os_str5OsStr10from_inner17h883878895e111fe2E(%"std::sys_common::os_str_bytes::Slice"* noalias nonnull readonly align 1 %_5.0, i64 %_5.1)
  %_3.0 = extractvalue { %"std::ffi::os_str::OsStr"*, i64 } %1, 0
  %_3.1 = extractvalue { %"std::ffi::os_str::OsStr"*, i64 } %1, 1
  br label %bb2

bb2:                                              ; preds = %bb1
  %2 = insertvalue { %"std::ffi::os_str::OsStr"*, i64 } undef, %"std::ffi::os_str::OsStr"* %_3.0, 0
  %3 = insertvalue { %"std::ffi::os_str::OsStr"*, i64 } %2, i64 %_3.1, 1
  ret { %"std::ffi::os_str::OsStr"*, i64 } %3
}

; <alloc::vec::Vec<T> as alloc::vec::SpecExtend<&T,core::slice::Iter<T>>>::spec_extend
; Function Attrs: uwtable
define internal void @"_ZN109_$LT$alloc..vec..Vec$LT$T$GT$$u20$as$u20$alloc..vec..SpecExtend$LT$$RF$T$C$core..slice..Iter$LT$T$GT$$GT$$GT$11spec_extend17haf2ea0891db73637E"(%"alloc::vec::Vec<u8>"* align 8 dereferenceable(24) %self, i8* nonnull, i8*) unnamed_addr #1 {
start:
  %_23 = alloca i64, align 8
  %iterator = alloca { i8*, i8* }, align 8
  %2 = getelementptr inbounds { i8*, i8* }, { i8*, i8* }* %iterator, i32 0, i32 0
  store i8* %0, i8** %2, align 8
  %3 = getelementptr inbounds { i8*, i8* }, { i8*, i8* }* %iterator, i32 0, i32 1
  store i8* %1, i8** %3, align 8
; call core::slice::Iter<T>::as_slice
  %4 = call { [0 x i8]*, i64 } @"_ZN4core5slice13Iter$LT$T$GT$8as_slice17h9a3f5bb86f3d0884E"({ i8*, i8* }* noalias readonly align 8 dereferenceable(16) %iterator)
  %slice.0 = extractvalue { [0 x i8]*, i64 } %4, 0
  %slice.1 = extractvalue { [0 x i8]*, i64 } %4, 1
  br label %bb1

bb1:                                              ; preds = %start
; call core::slice::<impl [T]>::len
  %_7 = call i64 @"_ZN4core5slice29_$LT$impl$u20$$u5b$T$u5d$$GT$3len17h94132aff3fbee2b4E"([0 x i8]* noalias nonnull readonly align 1 %slice.0, i64 %slice.1)
  br label %bb2

bb2:                                              ; preds = %bb1
; call alloc::vec::Vec<T>::reserve
  call void @"_ZN5alloc3vec12Vec$LT$T$GT$7reserve17h6d9ffaa462416a08E"(%"alloc::vec::Vec<u8>"* align 8 dereferenceable(24) %self, i64 %_7)
  br label %bb3

bb3:                                              ; preds = %bb2
; call alloc::vec::Vec<T>::len
  %len = call i64 @"_ZN5alloc3vec12Vec$LT$T$GT$3len17h4672323afee8e226E"(%"alloc::vec::Vec<u8>"* noalias readonly align 8 dereferenceable(24) %self)
  br label %bb4

bb4:                                              ; preds = %bb3
; call core::slice::<impl [T]>::len
  %_15 = call i64 @"_ZN4core5slice29_$LT$impl$u20$$u5b$T$u5d$$GT$3len17h94132aff3fbee2b4E"([0 x i8]* noalias nonnull readonly align 1 %slice.0, i64 %slice.1)
  br label %bb5

bb5:                                              ; preds = %bb4
  %_13 = add i64 %len, %_15
; call alloc::vec::Vec<T>::set_len
  call void @"_ZN5alloc3vec12Vec$LT$T$GT$7set_len17hb91af96fe52d6d21E"(%"alloc::vec::Vec<u8>"* align 8 dereferenceable(24) %self, i64 %_13)
  br label %bb6

bb6:                                              ; preds = %bb5
; call <alloc::vec::Vec<T> as core::ops::deref::DerefMut>::deref_mut
  %5 = call { [0 x i8]*, i64 } @"_ZN71_$LT$alloc..vec..Vec$LT$T$GT$$u20$as$u20$core..ops..deref..DerefMut$GT$9deref_mut17hb7bb8b6910c6e84dE"(%"alloc::vec::Vec<u8>"* align 8 dereferenceable(24) %self)
  %_21.0 = extractvalue { [0 x i8]*, i64 } %5, 0
  %_21.1 = extractvalue { [0 x i8]*, i64 } %5, 1
  br label %bb7

bb7:                                              ; preds = %bb6
  store i64 %len, i64* %_23, align 8
  %6 = load i64, i64* %_23, align 8
; call core::slice::<impl [T]>::get_unchecked_mut
  %7 = call { [0 x i8]*, i64 } @"_ZN4core5slice29_$LT$impl$u20$$u5b$T$u5d$$GT$17get_unchecked_mut17he47ffed2b729343fE"([0 x i8]* nonnull align 1 %_21.0, i64 %_21.1, i64 %6)
  %_19.0 = extractvalue { [0 x i8]*, i64 } %7, 0
  %_19.1 = extractvalue { [0 x i8]*, i64 } %7, 1
  br label %bb8

bb8:                                              ; preds = %bb7
; call core::slice::<impl [T]>::copy_from_slice
  call void @"_ZN4core5slice29_$LT$impl$u20$$u5b$T$u5d$$GT$15copy_from_slice17h78db8840fd87fdbcE"([0 x i8]* nonnull align 1 %_19.0, i64 %_19.1, [0 x i8]* noalias nonnull readonly align 1 %slice.0, i64 %slice.1)
  br label %bb9

bb9:                                              ; preds = %bb8
  ret void
}

; <alloc::collections::btree::map::IntoIter<K,V> as core::iter::traits::iterator::Iterator>::next
; Function Attrs: uwtable
define internal void @"_ZN112_$LT$alloc..collections..btree..map..IntoIter$LT$K$C$V$GT$$u20$as$u20$core..iter..traits..iterator..Iterator$GT$4next17h20e671f3a450a701E"(%"core::option::Option<(std::ffi::os_str::OsString, core::option::Option<std::ffi::os_str::OsString>)>"* noalias nocapture sret dereferenceable(48), %"alloc::collections::btree::map::IntoIter<std::ffi::os_str::OsString, core::option::Option<std::ffi::os_str::OsString>>"* align 8 dereferenceable(72) %self) unnamed_addr #1 {
start:
  %_4 = alloca { [0 x i64], %"std::ffi::os_str::OsString", [0 x i64], %"core::option::Option<std::ffi::os_str::OsString>", [0 x i64] }, align 8
  %1 = getelementptr inbounds %"alloc::collections::btree::map::IntoIter<std::ffi::os_str::OsString, core::option::Option<std::ffi::os_str::OsString>>", %"alloc::collections::btree::map::IntoIter<std::ffi::os_str::OsString, core::option::Option<std::ffi::os_str::OsString>>"* %self, i32 0, i32 5
  %_3 = load i64, i64* %1, align 8
  %_2 = icmp eq i64 %_3, 0
  br i1 %_2, label %bb2, label %bb1

bb1:                                              ; preds = %start
  %2 = getelementptr inbounds %"alloc::collections::btree::map::IntoIter<std::ffi::os_str::OsString, core::option::Option<std::ffi::os_str::OsString>>", %"alloc::collections::btree::map::IntoIter<std::ffi::os_str::OsString, core::option::Option<std::ffi::os_str::OsString>>"* %self, i32 0, i32 5
  %3 = getelementptr inbounds %"alloc::collections::btree::map::IntoIter<std::ffi::os_str::OsString, core::option::Option<std::ffi::os_str::OsString>>", %"alloc::collections::btree::map::IntoIter<std::ffi::os_str::OsString, core::option::Option<std::ffi::os_str::OsString>>"* %self, i32 0, i32 5
  %4 = load i64, i64* %3, align 8
  %5 = sub i64 %4, 1
  store i64 %5, i64* %2, align 8
  %_5 = bitcast %"alloc::collections::btree::map::IntoIter<std::ffi::os_str::OsString, core::option::Option<std::ffi::os_str::OsString>>"* %self to %"alloc::collections::btree::node::Handle<alloc::collections::btree::node::NodeRef<alloc::collections::btree::node::marker::Owned, std::ffi::os_str::OsString, core::option::Option<std::ffi::os_str::OsString>, alloc::collections::btree::node::marker::Leaf>, alloc::collections::btree::node::marker::Edge>"*
; call alloc::collections::btree::navigate::<impl alloc::collections::btree::node::Handle<alloc::collections::btree::node::NodeRef<alloc::collections::btree::node::marker::Owned,K,V,alloc::collections::btree::node::marker::Leaf>,alloc::collections::btree::node::marker::Edge>>::next_unchecked
  call void @"_ZN5alloc11collections5btree8navigate263_$LT$impl$u20$alloc..collections..btree..node..Handle$LT$alloc..collections..btree..node..NodeRef$LT$alloc..collections..btree..node..marker..Owned$C$K$C$V$C$alloc..collections..btree..node..marker..Leaf$GT$$C$alloc..collections..btree..node..marker..Edge$GT$$GT$14next_unchecked17h8fd264bebb35378eE"({ [0 x i64], %"std::ffi::os_str::OsString", [0 x i64], %"core::option::Option<std::ffi::os_str::OsString>", [0 x i64] }* noalias nocapture sret dereferenceable(48) %_4, %"alloc::collections::btree::node::Handle<alloc::collections::btree::node::NodeRef<alloc::collections::btree::node::marker::Owned, std::ffi::os_str::OsString, core::option::Option<std::ffi::os_str::OsString>, alloc::collections::btree::node::marker::Leaf>, alloc::collections::btree::node::marker::Edge>"* align 8 dereferenceable(32) %_5)
  br label %bb3

bb2:                                              ; preds = %start
  %6 = bitcast %"core::option::Option<(std::ffi::os_str::OsString, core::option::Option<std::ffi::os_str::OsString>)>"* %0 to {}**
  store {}* null, {}** %6, align 8
  br label %bb4

bb3:                                              ; preds = %bb1
  %7 = bitcast %"core::option::Option<(std::ffi::os_str::OsString, core::option::Option<std::ffi::os_str::OsString>)>"* %0 to %"core::option::Option<(std::ffi::os_str::OsString, core::option::Option<std::ffi::os_str::OsString>)>::Some"*
  %8 = bitcast %"core::option::Option<(std::ffi::os_str::OsString, core::option::Option<std::ffi::os_str::OsString>)>::Some"* %7 to { [0 x i64], %"std::ffi::os_str::OsString", [0 x i64], %"core::option::Option<std::ffi::os_str::OsString>", [0 x i64] }*
  %9 = bitcast { [0 x i64], %"std::ffi::os_str::OsString", [0 x i64], %"core::option::Option<std::ffi::os_str::OsString>", [0 x i64] }* %8 to i8*
  %10 = bitcast { [0 x i64], %"std::ffi::os_str::OsString", [0 x i64], %"core::option::Option<std::ffi::os_str::OsString>", [0 x i64] }* %_4 to i8*
  call void @llvm.memcpy.p0i8.p0i8.i64(i8* align 8 %9, i8* align 8 %10, i64 48, i1 false)
  br label %bb4

bb4:                                              ; preds = %bb3, %bb2
  ret void
}

; <alloc::collections::btree::map::BTreeMap<K,V> as core::iter::traits::collect::IntoIterator>::into_iter
; Function Attrs: uwtable
define internal void @"_ZN115_$LT$alloc..collections..btree..map..BTreeMap$LT$K$C$V$GT$$u20$as$u20$core..iter..traits..collect..IntoIterator$GT$9into_iter17h00d6dcd6c27d3964E"(%"alloc::collections::btree::map::IntoIter<std::ffi::os_str::OsString, core::option::Option<std::ffi::os_str::OsString>>"* noalias nocapture sret dereferenceable(72), %"alloc::collections::btree::map::BTreeMap<std::ffi::os_str::OsString, core::option::Option<std::ffi::os_str::OsString>>"* noalias nocapture dereferenceable(24) %self) unnamed_addr #1 personality i32 (i32, i32, i64, %"unwind::libunwind::_Unwind_Exception"*, %"unwind::libunwind::_Unwind_Context"*)* @rust_eh_personality {
start:
  %1 = alloca { i8*, i32 }, align 8
  %_18 = alloca i8, align 1
  %_16 = alloca %"alloc::collections::btree::node::NodeRef<alloc::collections::btree::node::marker::Owned, std::ffi::os_str::OsString, core::option::Option<std::ffi::os_str::OsString>, alloc::collections::btree::node::marker::LeafOrInternal>", align 8
  %_15 = alloca %"alloc::collections::btree::node::Handle<alloc::collections::btree::node::NodeRef<alloc::collections::btree::node::marker::Owned, std::ffi::os_str::OsString, core::option::Option<std::ffi::os_str::OsString>, alloc::collections::btree::node::marker::Leaf>, alloc::collections::btree::node::marker::Edge>", align 8
  %_14 = alloca %"alloc::collections::btree::node::NodeRef<alloc::collections::btree::node::marker::Owned, std::ffi::os_str::OsString, core::option::Option<std::ffi::os_str::OsString>, alloc::collections::btree::node::marker::LeafOrInternal>", align 8
  %_13 = alloca %"alloc::collections::btree::node::Handle<alloc::collections::btree::node::NodeRef<alloc::collections::btree::node::marker::Owned, std::ffi::os_str::OsString, core::option::Option<std::ffi::os_str::OsString>, alloc::collections::btree::node::marker::Leaf>, alloc::collections::btree::node::marker::Edge>", align 8
  %_12 = alloca %"alloc::collections::btree::map::BTreeMap<std::ffi::os_str::OsString, core::option::Option<std::ffi::os_str::OsString>>", align 8
  %root2 = alloca %"alloc::collections::btree::node::NodeRef<alloc::collections::btree::node::marker::Owned, std::ffi::os_str::OsString, core::option::Option<std::ffi::os_str::OsString>, alloc::collections::btree::node::marker::LeafOrInternal>", align 8
  %root1 = alloca %"alloc::collections::btree::node::NodeRef<alloc::collections::btree::node::marker::Owned, std::ffi::os_str::OsString, core::option::Option<std::ffi::os_str::OsString>, alloc::collections::btree::node::marker::LeafOrInternal>", align 8
  store i8 0, i8* %_18, align 1
  store i8 1, i8* %_18, align 1
  %_5 = bitcast %"alloc::collections::btree::map::BTreeMap<std::ffi::os_str::OsString, core::option::Option<std::ffi::os_str::OsString>>"* %self to { i64*, i64 }*
; invoke core::ptr::read
  %2 = invoke { i64*, i64 } @_ZN4core3ptr4read17h579f4a2b86de8eefE({ i64*, i64 }* %_5)
          to label %bb2 unwind label %cleanup

bb1:                                              ; preds = %bb9, %bb10
  %3 = bitcast { i8*, i32 }* %1 to i8**
  %4 = load i8*, i8** %3, align 8
  %5 = getelementptr inbounds { i8*, i32 }, { i8*, i32 }* %1, i32 0, i32 1
  %6 = load i32, i32* %5, align 8
  %7 = insertvalue { i8*, i32 } undef, i8* %4, 0
  %8 = insertvalue { i8*, i32 } %7, i32 %6, 1
  resume { i8*, i32 } %8

bb2:                                              ; preds = %start
  %_3.0 = extractvalue { i64*, i64 } %2, 0
  %_3.1 = extractvalue { i64*, i64 } %2, 1
; invoke alloc::collections::btree::node::Root<K,V>::into_ref
  invoke void @"_ZN5alloc11collections5btree4node17Root$LT$K$C$V$GT$8into_ref17h3a08b8a7db603e37E"(%"alloc::collections::btree::node::NodeRef<alloc::collections::btree::node::marker::Owned, std::ffi::os_str::OsString, core::option::Option<std::ffi::os_str::OsString>, alloc::collections::btree::node::marker::LeafOrInternal>"* noalias nocapture sret dereferenceable(24) %root1, i64* nonnull %_3.0, i64 %_3.1)
          to label %bb3 unwind label %cleanup

bb3:                                              ; preds = %bb2
  %_9 = bitcast %"alloc::collections::btree::map::BTreeMap<std::ffi::os_str::OsString, core::option::Option<std::ffi::os_str::OsString>>"* %self to { i64*, i64 }*
; invoke core::ptr::read
  %9 = invoke { i64*, i64 } @_ZN4core3ptr4read17h579f4a2b86de8eefE({ i64*, i64 }* %_9)
          to label %bb4 unwind label %cleanup

bb4:                                              ; preds = %bb3
  %_7.0 = extractvalue { i64*, i64 } %9, 0
  %_7.1 = extractvalue { i64*, i64 } %9, 1
; invoke alloc::collections::btree::node::Root<K,V>::into_ref
  invoke void @"_ZN5alloc11collections5btree4node17Root$LT$K$C$V$GT$8into_ref17h3a08b8a7db603e37E"(%"alloc::collections::btree::node::NodeRef<alloc::collections::btree::node::marker::Owned, std::ffi::os_str::OsString, core::option::Option<std::ffi::os_str::OsString>, alloc::collections::btree::node::marker::LeafOrInternal>"* noalias nocapture sret dereferenceable(24) %root2, i64* nonnull %_7.0, i64 %_7.1)
          to label %bb5 unwind label %cleanup

bb5:                                              ; preds = %bb4
  %10 = getelementptr inbounds %"alloc::collections::btree::map::BTreeMap<std::ffi::os_str::OsString, core::option::Option<std::ffi::os_str::OsString>>", %"alloc::collections::btree::map::BTreeMap<std::ffi::os_str::OsString, core::option::Option<std::ffi::os_str::OsString>>"* %self, i32 0, i32 3
  %len = load i64, i64* %10, align 8
  store i8 0, i8* %_18, align 1
  %11 = bitcast %"alloc::collections::btree::map::BTreeMap<std::ffi::os_str::OsString, core::option::Option<std::ffi::os_str::OsString>>"* %_12 to i8*
  %12 = bitcast %"alloc::collections::btree::map::BTreeMap<std::ffi::os_str::OsString, core::option::Option<std::ffi::os_str::OsString>>"* %self to i8*
  call void @llvm.memcpy.p0i8.p0i8.i64(i8* align 8 %11, i8* align 8 %12, i64 24, i1 false)
; invoke core::mem::forget
  invoke void @_ZN4core3mem6forget17h36a3e896204f2500E(%"alloc::collections::btree::map::BTreeMap<std::ffi::os_str::OsString, core::option::Option<std::ffi::os_str::OsString>>"* noalias nocapture dereferenceable(24) %_12)
          to label %bb6 unwind label %cleanup

bb6:                                              ; preds = %bb5
  %13 = bitcast %"alloc::collections::btree::node::NodeRef<alloc::collections::btree::node::marker::Owned, std::ffi::os_str::OsString, core::option::Option<std::ffi::os_str::OsString>, alloc::collections::btree::node::marker::LeafOrInternal>"* %_14 to i8*
  %14 = bitcast %"alloc::collections::btree::node::NodeRef<alloc::collections::btree::node::marker::Owned, std::ffi::os_str::OsString, core::option::Option<std::ffi::os_str::OsString>, alloc::collections::btree::node::marker::LeafOrInternal>"* %root1 to i8*
  call void @llvm.memcpy.p0i8.p0i8.i64(i8* align 8 %13, i8* align 8 %14, i64 24, i1 false)
; invoke alloc::collections::btree::navigate::<impl alloc::collections::btree::node::NodeRef<BorrowType,K,V,alloc::collections::btree::node::marker::LeafOrInternal>>::first_leaf_edge
  invoke void @"_ZN5alloc11collections5btree8navigate142_$LT$impl$u20$alloc..collections..btree..node..NodeRef$LT$BorrowType$C$K$C$V$C$alloc..collections..btree..node..marker..LeafOrInternal$GT$$GT$15first_leaf_edge17ha5a094ddd5290b03E"(%"alloc::collections::btree::node::Handle<alloc::collections::btree::node::NodeRef<alloc::collections::btree::node::marker::Owned, std::ffi::os_str::OsString, core::option::Option<std::ffi::os_str::OsString>, alloc::collections::btree::node::marker::Leaf>, alloc::collections::btree::node::marker::Edge>"* noalias nocapture sret dereferenceable(32) %_13, %"alloc::collections::btree::node::NodeRef<alloc::collections::btree::node::marker::Owned, std::ffi::os_str::OsString, core::option::Option<std::ffi::os_str::OsString>, alloc::collections::btree::node::marker::LeafOrInternal>"* noalias nocapture dereferenceable(24) %_14)
          to label %bb7 unwind label %cleanup

bb7:                                              ; preds = %bb6
  %15 = bitcast %"alloc::collections::btree::node::NodeRef<alloc::collections::btree::node::marker::Owned, std::ffi::os_str::OsString, core::option::Option<std::ffi::os_str::OsString>, alloc::collections::btree::node::marker::LeafOrInternal>"* %_16 to i8*
  %16 = bitcast %"alloc::collections::btree::node::NodeRef<alloc::collections::btree::node::marker::Owned, std::ffi::os_str::OsString, core::option::Option<std::ffi::os_str::OsString>, alloc::collections::btree::node::marker::LeafOrInternal>"* %root2 to i8*
  call void @llvm.memcpy.p0i8.p0i8.i64(i8* align 8 %15, i8* align 8 %16, i64 24, i1 false)
; invoke alloc::collections::btree::navigate::<impl alloc::collections::btree::node::NodeRef<BorrowType,K,V,alloc::collections::btree::node::marker::LeafOrInternal>>::last_leaf_edge
  invoke void @"_ZN5alloc11collections5btree8navigate142_$LT$impl$u20$alloc..collections..btree..node..NodeRef$LT$BorrowType$C$K$C$V$C$alloc..collections..btree..node..marker..LeafOrInternal$GT$$GT$14last_leaf_edge17h99e5e0b8229214a9E"(%"alloc::collections::btree::node::Handle<alloc::collections::btree::node::NodeRef<alloc::collections::btree::node::marker::Owned, std::ffi::os_str::OsString, core::option::Option<std::ffi::os_str::OsString>, alloc::collections::btree::node::marker::Leaf>, alloc::collections::btree::node::marker::Edge>"* noalias nocapture sret dereferenceable(32) %_15, %"alloc::collections::btree::node::NodeRef<alloc::collections::btree::node::marker::Owned, std::ffi::os_str::OsString, core::option::Option<std::ffi::os_str::OsString>, alloc::collections::btree::node::marker::LeafOrInternal>"* noalias nocapture dereferenceable(24) %_16)
          to label %bb8 unwind label %cleanup

bb8:                                              ; preds = %bb7
  %17 = bitcast %"alloc::collections::btree::map::IntoIter<std::ffi::os_str::OsString, core::option::Option<std::ffi::os_str::OsString>>"* %0 to %"alloc::collections::btree::node::Handle<alloc::collections::btree::node::NodeRef<alloc::collections::btree::node::marker::Owned, std::ffi::os_str::OsString, core::option::Option<std::ffi::os_str::OsString>, alloc::collections::btree::node::marker::Leaf>, alloc::collections::btree::node::marker::Edge>"*
  %18 = bitcast %"alloc::collections::btree::node::Handle<alloc::collections::btree::node::NodeRef<alloc::collections::btree::node::marker::Owned, std::ffi::os_str::OsString, core::option::Option<std::ffi::os_str::OsString>, alloc::collections::btree::node::marker::Leaf>, alloc::collections::btree::node::marker::Edge>"* %17 to i8*
  %19 = bitcast %"alloc::collections::btree::node::Handle<alloc::collections::btree::node::NodeRef<alloc::collections::btree::node::marker::Owned, std::ffi::os_str::OsString, core::option::Option<std::ffi::os_str::OsString>, alloc::collections::btree::node::marker::Leaf>, alloc::collections::btree::node::marker::Edge>"* %_13 to i8*
  call void @llvm.memcpy.p0i8.p0i8.i64(i8* align 8 %18, i8* align 8 %19, i64 32, i1 false)
  %20 = getelementptr inbounds %"alloc::collections::btree::map::IntoIter<std::ffi::os_str::OsString, core::option::Option<std::ffi::os_str::OsString>>", %"alloc::collections::btree::map::IntoIter<std::ffi::os_str::OsString, core::option::Option<std::ffi::os_str::OsString>>"* %0, i32 0, i32 3
  %21 = bitcast %"alloc::collections::btree::node::Handle<alloc::collections::btree::node::NodeRef<alloc::collections::btree::node::marker::Owned, std::ffi::os_str::OsString, core::option::Option<std::ffi::os_str::OsString>, alloc::collections::btree::node::marker::Leaf>, alloc::collections::btree::node::marker::Edge>"* %20 to i8*
  %22 = bitcast %"alloc::collections::btree::node::Handle<alloc::collections::btree::node::NodeRef<alloc::collections::btree::node::marker::Owned, std::ffi::os_str::OsString, core::option::Option<std::ffi::os_str::OsString>, alloc::collections::btree::node::marker::Leaf>, alloc::collections::btree::node::marker::Edge>"* %_15 to i8*
  call void @llvm.memcpy.p0i8.p0i8.i64(i8* align 8 %21, i8* align 8 %22, i64 32, i1 false)
  %23 = getelementptr inbounds %"alloc::collections::btree::map::IntoIter<std::ffi::os_str::OsString, core::option::Option<std::ffi::os_str::OsString>>", %"alloc::collections::btree::map::IntoIter<std::ffi::os_str::OsString, core::option::Option<std::ffi::os_str::OsString>>"* %0, i32 0, i32 5
  store i64 %len, i64* %23, align 8
  ret void

bb9:                                              ; preds = %bb10
  store i8 0, i8* %_18, align 1
; call core::ptr::drop_in_place
  call void @_ZN4core3ptr13drop_in_place17hac80e4c4672d739eE(%"alloc::collections::btree::map::BTreeMap<std::ffi::os_str::OsString, core::option::Option<std::ffi::os_str::OsString>>"* %self) #11
  br label %bb1

bb10:                                             ; preds = %cleanup
  %24 = load i8, i8* %_18, align 1, !range !2
  %25 = trunc i8 %24 to i1
  br i1 %25, label %bb9, label %bb1

cleanup:                                          ; preds = %bb7, %bb6, %bb5, %bb4, %bb3, %bb2, %start
  %26 = landingpad { i8*, i32 }
          cleanup
  %27 = extractvalue { i8*, i32 } %26, 0
  %28 = extractvalue { i8*, i32 } %26, 1
  %29 = getelementptr inbounds { i8*, i32 }, { i8*, i32 }* %1, i32 0, i32 0
  store i8* %27, i8** %29, align 8
  %30 = getelementptr inbounds { i8*, i32 }, { i8*, i32 }* %1, i32 0, i32 1
  store i32 %28, i32* %30, align 8
  br label %bb10
}

; <core::ptr::non_null::NonNull<T> as core::convert::From<core::ptr::unique::Unique<T>>>::from
; Function Attrs: inlinehint uwtable
define internal nonnull i64* @"_ZN119_$LT$core..ptr..non_null..NonNull$LT$T$GT$$u20$as$u20$core..convert..From$LT$core..ptr..unique..Unique$LT$T$GT$$GT$$GT$4from17h044a16c27d7339e4E"(i64* nonnull %unique) unnamed_addr #0 {
start:
; call core::ptr::unique::Unique<T>::as_ptr
  %_2 = call { i8*, i64 }* @"_ZN4core3ptr6unique15Unique$LT$T$GT$6as_ptr17h09e06ea32360116fE"(i64* nonnull %unique)
  br label %bb1

bb1:                                              ; preds = %start
; call core::ptr::non_null::NonNull<T>::new_unchecked
  %0 = call nonnull i64* @"_ZN4core3ptr8non_null16NonNull$LT$T$GT$13new_unchecked17h3d6a92f8f1517b8dE"({ i8*, i64 }* %_2)
  br label %bb2

bb2:                                              ; preds = %bb1
  ret i64* %0
}

; <core::ptr::non_null::NonNull<T> as core::convert::From<core::ptr::unique::Unique<T>>>::from
; Function Attrs: inlinehint uwtable
define internal nonnull i8* @"_ZN119_$LT$core..ptr..non_null..NonNull$LT$T$GT$$u20$as$u20$core..convert..From$LT$core..ptr..unique..Unique$LT$T$GT$$GT$$GT$4from17h0a308d967a11e473E"(i8* nonnull %unique) unnamed_addr #0 {
start:
; call core::ptr::unique::Unique<T>::as_ptr
  %_2 = call i8* @"_ZN4core3ptr6unique15Unique$LT$T$GT$6as_ptr17hd942de9ad817c2bcE"(i8* nonnull %unique)
  br label %bb1

bb1:                                              ; preds = %start
; call core::ptr::non_null::NonNull<T>::new_unchecked
  %0 = call nonnull i8* @"_ZN4core3ptr8non_null16NonNull$LT$T$GT$13new_unchecked17hd10bebf2a4530942E"(i8* %_2)
  br label %bb2

bb2:                                              ; preds = %bb1
  ret i8* %0
}

; <core::ptr::non_null::NonNull<T> as core::convert::From<core::ptr::unique::Unique<T>>>::from
; Function Attrs: inlinehint uwtable
define internal nonnull i64* @"_ZN119_$LT$core..ptr..non_null..NonNull$LT$T$GT$$u20$as$u20$core..convert..From$LT$core..ptr..unique..Unique$LT$T$GT$$GT$$GT$4from17h0eafea88ece7fc74E"(i64* nonnull %unique) unnamed_addr #0 {
start:
; call core::ptr::unique::Unique<T>::as_ptr
  %_2 = call i8** @"_ZN4core3ptr6unique15Unique$LT$T$GT$6as_ptr17hb51a8f1eb51f8210E"(i64* nonnull %unique)
  br label %bb1

bb1:                                              ; preds = %start
; call core::ptr::non_null::NonNull<T>::new_unchecked
  %0 = call nonnull i64* @"_ZN4core3ptr8non_null16NonNull$LT$T$GT$13new_unchecked17he95d803c1674319fE"(i8** %_2)
  br label %bb2

bb2:                                              ; preds = %bb1
  ret i64* %0
}

; <core::ptr::non_null::NonNull<T> as core::convert::From<core::ptr::unique::Unique<T>>>::from
; Function Attrs: inlinehint uwtable
define internal nonnull i64* @"_ZN119_$LT$core..ptr..non_null..NonNull$LT$T$GT$$u20$as$u20$core..convert..From$LT$core..ptr..unique..Unique$LT$T$GT$$GT$$GT$4from17h4f6d6dba86144bacE"(i64* nonnull %unique) unnamed_addr #0 {
start:
; call core::ptr::unique::Unique<T>::as_ptr
  %_2 = call %"alloc::collections::btree::node::LeafNode<std::ffi::os_str::OsString, core::option::Option<std::ffi::os_str::OsString>>"* @"_ZN4core3ptr6unique15Unique$LT$T$GT$6as_ptr17hdc1a77e873d13395E"(i64* nonnull %unique)
  br label %bb1

bb1:                                              ; preds = %start
; call core::ptr::non_null::NonNull<T>::new_unchecked
  %0 = call nonnull i64* @"_ZN4core3ptr8non_null16NonNull$LT$T$GT$13new_unchecked17h6a1ff6c6a160214cE"(%"alloc::collections::btree::node::LeafNode<std::ffi::os_str::OsString, core::option::Option<std::ffi::os_str::OsString>>"* %_2)
  br label %bb2

bb2:                                              ; preds = %bb1
  ret i64* %0
}

; <core::ptr::non_null::NonNull<T> as core::convert::From<core::ptr::unique::Unique<T>>>::from
; Function Attrs: inlinehint uwtable
define internal nonnull i64* @"_ZN119_$LT$core..ptr..non_null..NonNull$LT$T$GT$$u20$as$u20$core..convert..From$LT$core..ptr..unique..Unique$LT$T$GT$$GT$$GT$4from17hdf7f414bb7f3839eE"(i64* nonnull %unique) unnamed_addr #0 {
start:
; call core::ptr::unique::Unique<T>::as_ptr
  %_2 = call { {}*, [3 x i64]* }* @"_ZN4core3ptr6unique15Unique$LT$T$GT$6as_ptr17h0de2eaa06a482f6cE"(i64* nonnull %unique)
  br label %bb1

bb1:                                              ; preds = %start
; call core::ptr::non_null::NonNull<T>::new_unchecked
  %0 = call nonnull i64* @"_ZN4core3ptr8non_null16NonNull$LT$T$GT$13new_unchecked17hd2fb7967d783d0a7E"({ {}*, [3 x i64]* }* %_2)
  br label %bb2

bb2:                                              ; preds = %bb1
  ret i64* %0
}

; <core::ptr::unique::Unique<T> as core::convert::From<core::ptr::non_null::NonNull<T>>>::from
; Function Attrs: inlinehint uwtable
define internal nonnull i8* @"_ZN119_$LT$core..ptr..unique..Unique$LT$T$GT$$u20$as$u20$core..convert..From$LT$core..ptr..non_null..NonNull$LT$T$GT$$GT$$GT$4from17hc38159e03f5b020eE"(i8* nonnull %p) unnamed_addr #0 {
start:
; call core::ptr::non_null::NonNull<T>::as_ptr
  %_2 = call i8* @"_ZN4core3ptr8non_null16NonNull$LT$T$GT$6as_ptr17h4816f4b37359c5abE"(i8* nonnull %p)
  br label %bb1

bb1:                                              ; preds = %start
; call core::ptr::unique::Unique<T>::new_unchecked
  %0 = call nonnull i8* @"_ZN4core3ptr6unique15Unique$LT$T$GT$13new_unchecked17hbccff30b454e499cE"(i8* %_2)
  br label %bb2

bb2:                                              ; preds = %bb1
  ret i8* %0
}

; std::sys_common::os_str_bytes::Buf::as_slice
; Function Attrs: inlinehint uwtable
define internal { %"std::sys_common::os_str_bytes::Slice"*, i64 } @_ZN3std10sys_common12os_str_bytes3Buf8as_slice17h7edbd14374934716E(%"std::sys_common::os_str_bytes::Buf"* noalias readonly align 8 dereferenceable(24) %self) unnamed_addr #0 {
start:
  %0 = alloca { %"std::sys_common::os_str_bytes::Slice"*, i64 }, align 8
  %_4 = bitcast %"std::sys_common::os_str_bytes::Buf"* %self to %"alloc::vec::Vec<u8>"*
; call <alloc::vec::Vec<T> as core::ops::deref::Deref>::deref
  %1 = call { [0 x i8]*, i64 } @"_ZN68_$LT$alloc..vec..Vec$LT$T$GT$$u20$as$u20$core..ops..deref..Deref$GT$5deref17h07e4820df0a741c9E"(%"alloc::vec::Vec<u8>"* noalias readonly align 8 dereferenceable(24) %_4)
  %_3.0 = extractvalue { [0 x i8]*, i64 } %1, 0
  %_3.1 = extractvalue { [0 x i8]*, i64 } %1, 1
  br label %bb1

bb1:                                              ; preds = %start
  %2 = bitcast { %"std::sys_common::os_str_bytes::Slice"*, i64 }* %0 to { [0 x i8]*, i64 }*
  %3 = getelementptr inbounds { [0 x i8]*, i64 }, { [0 x i8]*, i64 }* %2, i32 0, i32 0
  store [0 x i8]* %_3.0, [0 x i8]** %3, align 8
  %4 = getelementptr inbounds { [0 x i8]*, i64 }, { [0 x i8]*, i64 }* %2, i32 0, i32 1
  store i64 %_3.1, i64* %4, align 8
  %5 = getelementptr inbounds { %"std::sys_common::os_str_bytes::Slice"*, i64 }, { %"std::sys_common::os_str_bytes::Slice"*, i64 }* %0, i32 0, i32 0
  %6 = load %"std::sys_common::os_str_bytes::Slice"*, %"std::sys_common::os_str_bytes::Slice"** %5, align 8, !nonnull !3
  %7 = getelementptr inbounds { %"std::sys_common::os_str_bytes::Slice"*, i64 }, { %"std::sys_common::os_str_bytes::Slice"*, i64 }* %0, i32 0, i32 1
  %8 = load i64, i64* %7, align 8
  br label %bb2

bb2:                                              ; preds = %bb1
  %9 = insertvalue { %"std::sys_common::os_str_bytes::Slice"*, i64 } undef, %"std::sys_common::os_str_bytes::Slice"* %6, 0
  %10 = insertvalue { %"std::sys_common::os_str_bytes::Slice"*, i64 } %9, i64 %8, 1
  ret { %"std::sys_common::os_str_bytes::Slice"*, i64 } %10
}

; std::sys_common::os_str_bytes::Slice::from_u8_slice
; Function Attrs: inlinehint uwtable
define internal { %"std::sys_common::os_str_bytes::Slice"*, i64 } @_ZN3std10sys_common12os_str_bytes5Slice13from_u8_slice17h830b1b564e119176E([0 x i8]* noalias nonnull readonly align 1 %s.0, i64 %s.1) unnamed_addr #0 {
start:
  %0 = alloca { %"std::sys_common::os_str_bytes::Slice"*, i64 }, align 8
  %1 = bitcast { %"std::sys_common::os_str_bytes::Slice"*, i64 }* %0 to { [0 x i8]*, i64 }*
  %2 = getelementptr inbounds { [0 x i8]*, i64 }, { [0 x i8]*, i64 }* %1, i32 0, i32 0
  store [0 x i8]* %s.0, [0 x i8]** %2, align 8
  %3 = getelementptr inbounds { [0 x i8]*, i64 }, { [0 x i8]*, i64 }* %1, i32 0, i32 1
  store i64 %s.1, i64* %3, align 8
  %4 = getelementptr inbounds { %"std::sys_common::os_str_bytes::Slice"*, i64 }, { %"std::sys_common::os_str_bytes::Slice"*, i64 }* %0, i32 0, i32 0
  %5 = load %"std::sys_common::os_str_bytes::Slice"*, %"std::sys_common::os_str_bytes::Slice"** %4, align 8, !nonnull !3
  %6 = getelementptr inbounds { %"std::sys_common::os_str_bytes::Slice"*, i64 }, { %"std::sys_common::os_str_bytes::Slice"*, i64 }* %0, i32 0, i32 1
  %7 = load i64, i64* %6, align 8
  br label %bb1

bb1:                                              ; preds = %start
  %8 = insertvalue { %"std::sys_common::os_str_bytes::Slice"*, i64 } undef, %"std::sys_common::os_str_bytes::Slice"* %5, 0
  %9 = insertvalue { %"std::sys_common::os_str_bytes::Slice"*, i64 } %8, i64 %7, 1
  ret { %"std::sys_common::os_str_bytes::Slice"*, i64 } %9
}

; std::sys_common::os_str_bytes::Slice::from_str
; Function Attrs: inlinehint uwtable
define internal { %"std::sys_common::os_str_bytes::Slice"*, i64 } @_ZN3std10sys_common12os_str_bytes5Slice8from_str17he6e8aea9a6f6a3ffE([0 x i8]* noalias nonnull readonly align 1 %s.0, i64 %s.1) unnamed_addr #0 {
start:
  %_2.i = alloca %"core::str::{{impl}}::as_bytes::Slices", align 8
  %0 = bitcast %"core::str::{{impl}}::as_bytes::Slices"* %_2.i to { [0 x i8]*, i64 }*
  %1 = getelementptr inbounds { [0 x i8]*, i64 }, { [0 x i8]*, i64 }* %0, i32 0, i32 0
  store [0 x i8]* %s.0, [0 x i8]** %1, align 8, !noalias !4
  %2 = getelementptr inbounds { [0 x i8]*, i64 }, { [0 x i8]*, i64 }* %0, i32 0, i32 1
  store i64 %s.1, i64* %2, align 8, !noalias !4
  %3 = bitcast %"core::str::{{impl}}::as_bytes::Slices"* %_2.i to { [0 x i8]*, i64 }*
  %4 = getelementptr inbounds { [0 x i8]*, i64 }, { [0 x i8]*, i64 }* %3, i32 0, i32 0
  %5 = load [0 x i8]*, [0 x i8]** %4, align 8, !noalias !4, !nonnull !3
  %6 = getelementptr inbounds { [0 x i8]*, i64 }, { [0 x i8]*, i64 }* %3, i32 0, i32 1
  %7 = load i64, i64* %6, align 8, !noalias !4
  %8 = insertvalue { [0 x i8]*, i64 } undef, [0 x i8]* %5, 0
  %9 = insertvalue { [0 x i8]*, i64 } %8, i64 %7, 1
  %_4.0 = extractvalue { [0 x i8]*, i64 } %9, 0
  %_4.1 = extractvalue { [0 x i8]*, i64 } %9, 1
  br label %bb1

bb1:                                              ; preds = %start
; call std::sys_common::os_str_bytes::Slice::from_u8_slice
  %10 = call { %"std::sys_common::os_str_bytes::Slice"*, i64 } @_ZN3std10sys_common12os_str_bytes5Slice13from_u8_slice17h830b1b564e119176E([0 x i8]* noalias nonnull readonly align 1 %_4.0, i64 %_4.1)
  %_2.0 = extractvalue { %"std::sys_common::os_str_bytes::Slice"*, i64 } %10, 0
  %_2.1 = extractvalue { %"std::sys_common::os_str_bytes::Slice"*, i64 } %10, 1
  br label %bb2

bb2:                                              ; preds = %bb1
  %11 = insertvalue { %"std::sys_common::os_str_bytes::Slice"*, i64 } undef, %"std::sys_common::os_str_bytes::Slice"* %_2.0, 0
  %12 = insertvalue { %"std::sys_common::os_str_bytes::Slice"*, i64 } %11, i64 %_2.1, 1
  ret { %"std::sys_common::os_str_bytes::Slice"*, i64 } %12
}

; std::fs::OpenOptions::open
; Function Attrs: uwtable
define internal void @_ZN3std2fs11OpenOptions4open17hbd7ed43a434bdc43E(%"core::result::Result<std::fs::File, std::io::error::Error>"* noalias nocapture sret dereferenceable(24), %"std::fs::OpenOptions"* noalias readonly align 4 dereferenceable(12) %self, %"std::path::Path"* noalias nonnull readonly align 1, i64) unnamed_addr #1 personality i32 (i32, i32, i64, %"unwind::libunwind::_Unwind_Exception"*, %"unwind::libunwind::_Unwind_Context"*)* @rust_eh_personality {
start:
  %3 = alloca { i8*, i32 }, align 8
  %path = alloca { %"std::path::Path"*, i64 }, align 8
  %4 = getelementptr inbounds { %"std::path::Path"*, i64 }, { %"std::path::Path"*, i64 }* %path, i32 0, i32 0
  store %"std::path::Path"* %1, %"std::path::Path"** %4, align 8
  %5 = getelementptr inbounds { %"std::path::Path"*, i64 }, { %"std::path::Path"*, i64 }* %path, i32 0, i32 1
  store i64 %2, i64* %5, align 8
; invoke <&T as core::convert::AsRef<U>>::as_ref
  %6 = invoke { %"std::path::Path"*, i64 } @"_ZN55_$LT$$RF$T$u20$as$u20$core..convert..AsRef$LT$U$GT$$GT$6as_ref17haff7e418669b2857E"({ %"std::path::Path"*, i64 }* noalias readonly align 8 dereferenceable(16) %path)
          to label %bb2 unwind label %cleanup

bb1:                                              ; preds = %bb3
  %7 = bitcast { i8*, i32 }* %3 to i8**
  %8 = load i8*, i8** %7, align 8
  %9 = getelementptr inbounds { i8*, i32 }, { i8*, i32 }* %3, i32 0, i32 1
  %10 = load i32, i32* %9, align 8
  %11 = insertvalue { i8*, i32 } undef, i8* %8, 0
  %12 = insertvalue { i8*, i32 } %11, i32 %10, 1
  resume { i8*, i32 } %12

bb2:                                              ; preds = %start
  %_5.0 = extractvalue { %"std::path::Path"*, i64 } %6, 0
  %_5.1 = extractvalue { %"std::path::Path"*, i64 } %6, 1
; invoke std::fs::OpenOptions::_open
  invoke void @_ZN3std2fs11OpenOptions5_open17h4b4822d5950fedd6E(%"core::result::Result<std::fs::File, std::io::error::Error>"* noalias nocapture sret dereferenceable(24) %0, %"std::fs::OpenOptions"* noalias readonly align 4 dereferenceable(12) %self, %"std::path::Path"* noalias nonnull readonly align 1 %_5.0, i64 %_5.1)
          to label %bb4 unwind label %cleanup

bb3:                                              ; preds = %cleanup
  br label %bb1

bb4:                                              ; preds = %bb2
  br label %bb5

bb5:                                              ; preds = %bb4
  ret void

cleanup:                                          ; preds = %bb2, %start
  %13 = landingpad { i8*, i32 }
          cleanup
  %14 = extractvalue { i8*, i32 } %13, 0
  %15 = extractvalue { i8*, i32 } %13, 1
  %16 = getelementptr inbounds { i8*, i32 }, { i8*, i32 }* %3, i32 0, i32 0
  store i8* %14, i8** %16, align 8
  %17 = getelementptr inbounds { i8*, i32 }, { i8*, i32 }* %3, i32 0, i32 1
  store i32 %15, i32* %17, align 8
  br label %bb3
}

; std::fs::File::create
; Function Attrs: uwtable
define internal void @_ZN3std2fs4File6create17h98bed3509048b14cE(%"core::result::Result<std::fs::File, std::io::error::Error>"* noalias nocapture sret dereferenceable(24), %"std::path::Path"* noalias nonnull readonly align 1, i64) unnamed_addr #1 personality i32 (i32, i32, i64, %"unwind::libunwind::_Unwind_Exception"*, %"unwind::libunwind::_Unwind_Context"*)* @rust_eh_personality {
start:
  %3 = alloca { i8*, i32 }, align 8
  %_9 = alloca %"std::fs::OpenOptions", align 4
  %path = alloca { %"std::path::Path"*, i64 }, align 8
  %4 = getelementptr inbounds { %"std::path::Path"*, i64 }, { %"std::path::Path"*, i64 }* %path, i32 0, i32 0
  store %"std::path::Path"* %1, %"std::path::Path"** %4, align 8
  %5 = getelementptr inbounds { %"std::path::Path"*, i64 }, { %"std::path::Path"*, i64 }* %path, i32 0, i32 1
  store i64 %2, i64* %5, align 8
; invoke std::fs::OpenOptions::new
  invoke void @_ZN3std2fs11OpenOptions3new17h3f7ee425e3c4068fE(%"std::fs::OpenOptions"* noalias nocapture sret dereferenceable(12) %_9)
          to label %bb2 unwind label %cleanup

bb1:                                              ; preds = %bb3
  %6 = bitcast { i8*, i32 }* %3 to i8**
  %7 = load i8*, i8** %6, align 8
  %8 = getelementptr inbounds { i8*, i32 }, { i8*, i32 }* %3, i32 0, i32 1
  %9 = load i32, i32* %8, align 8
  %10 = insertvalue { i8*, i32 } undef, i8* %7, 0
  %11 = insertvalue { i8*, i32 } %10, i32 %9, 1
  resume { i8*, i32 } %11

bb2:                                              ; preds = %start
; invoke std::fs::OpenOptions::write
  %_7 = invoke align 4 dereferenceable(12) %"std::fs::OpenOptions"* @_ZN3std2fs11OpenOptions5write17h0a76580681798ab3E(%"std::fs::OpenOptions"* align 4 dereferenceable(12) %_9, i1 zeroext true)
          to label %bb4 unwind label %cleanup

bb3:                                              ; preds = %cleanup
  br label %bb1

bb4:                                              ; preds = %bb2
; invoke std::fs::OpenOptions::create
  %_5 = invoke align 4 dereferenceable(12) %"std::fs::OpenOptions"* @_ZN3std2fs11OpenOptions6create17hb6694165d8dcc9e3E(%"std::fs::OpenOptions"* align 4 dereferenceable(12) %_7, i1 zeroext true)
          to label %bb5 unwind label %cleanup

bb5:                                              ; preds = %bb4
; invoke std::fs::OpenOptions::truncate
  %_3 = invoke align 4 dereferenceable(12) %"std::fs::OpenOptions"* @_ZN3std2fs11OpenOptions8truncate17h2a9a6b3abe71f41dE(%"std::fs::OpenOptions"* align 4 dereferenceable(12) %_5, i1 zeroext true)
          to label %bb6 unwind label %cleanup

bb6:                                              ; preds = %bb5
; invoke <&T as core::convert::AsRef<U>>::as_ref
  %12 = invoke { %"std::path::Path"*, i64 } @"_ZN55_$LT$$RF$T$u20$as$u20$core..convert..AsRef$LT$U$GT$$GT$6as_ref17haff7e418669b2857E"({ %"std::path::Path"*, i64 }* noalias readonly align 8 dereferenceable(16) %path)
          to label %bb7 unwind label %cleanup

bb7:                                              ; preds = %bb6
  %_10.0 = extractvalue { %"std::path::Path"*, i64 } %12, 0
  %_10.1 = extractvalue { %"std::path::Path"*, i64 } %12, 1
; invoke std::fs::OpenOptions::open
  invoke void @_ZN3std2fs11OpenOptions4open17hbd7ed43a434bdc43E(%"core::result::Result<std::fs::File, std::io::error::Error>"* noalias nocapture sret dereferenceable(24) %0, %"std::fs::OpenOptions"* noalias readonly align 4 dereferenceable(12) %_3, %"std::path::Path"* noalias nonnull readonly align 1 %_10.0, i64 %_10.1)
          to label %bb8 unwind label %cleanup

bb8:                                              ; preds = %bb7
  br label %bb9

bb9:                                              ; preds = %bb8
  ret void

cleanup:                                          ; preds = %bb7, %bb6, %bb5, %bb4, %bb2, %start
  %13 = landingpad { i8*, i32 }
          cleanup
  %14 = extractvalue { i8*, i32 } %13, 0
  %15 = extractvalue { i8*, i32 } %13, 1
  %16 = getelementptr inbounds { i8*, i32 }, { i8*, i32 }* %3, i32 0, i32 0
  store i8* %14, i8** %16, align 8
  %17 = getelementptr inbounds { i8*, i32 }, { i8*, i32 }* %3, i32 0, i32 1
  store i32 %15, i32* %17, align 8
  br label %bb3
}

; std::io::Write::write_all
; Function Attrs: uwtable
define internal void @_ZN3std2io5Write9write_all17h1e88a028bfb34b6fE(%"core::result::Result<(), std::io::error::Error>"* noalias nocapture sret dereferenceable(16), i32* align 4 dereferenceable(4) %self, [0 x i8]* noalias nonnull readonly align 1, i64) unnamed_addr #1 personality i32 (i32, i32, i64, %"unwind::libunwind::_Unwind_Exception"*, %"unwind::libunwind::_Unwind_Context"*)* @rust_eh_personality {
start:
  %3 = alloca { i8*, i32 }, align 8
  %_30 = alloca i8, align 1
  %_27 = alloca %"std::io::error::Error", align 8
  %e1 = alloca %"std::io::error::Error", align 8
  %_23 = alloca i8, align 1
  %e = alloca %"std::io::error::Error"*, align 8
  %_17 = alloca i64, align 8
  %_11 = alloca i8, align 1
  %_10 = alloca %"std::io::error::Error", align 8
  %_6 = alloca %"core::result::Result<usize, std::io::error::Error>", align 8
  %buf = alloca { [0 x i8]*, i64 }, align 8
  %4 = getelementptr inbounds { [0 x i8]*, i64 }, { [0 x i8]*, i64 }* %buf, i32 0, i32 0
  store [0 x i8]* %1, [0 x i8]** %4, align 8
  %5 = getelementptr inbounds { [0 x i8]*, i64 }, { [0 x i8]*, i64 }* %buf, i32 0, i32 1
  store i64 %2, i64* %5, align 8
  store i8 0, i8* %_30, align 1
  br label %bb1

bb1:                                              ; preds = %bb22, %start
  %6 = getelementptr inbounds { [0 x i8]*, i64 }, { [0 x i8]*, i64 }* %buf, i32 0, i32 0
  %_5.0 = load [0 x i8]*, [0 x i8]** %6, align 8, !nonnull !3
  %7 = getelementptr inbounds { [0 x i8]*, i64 }, { [0 x i8]*, i64 }* %buf, i32 0, i32 1
  %_5.1 = load i64, i64* %7, align 8
; call core::slice::<impl [T]>::is_empty
  %_4 = call zeroext i1 @"_ZN4core5slice29_$LT$impl$u20$$u5b$T$u5d$$GT$8is_empty17hb99169ff4bdf8b05E"([0 x i8]* noalias nonnull readonly align 1 %_5.0, i64 %_5.1)
  br label %bb3

bb2:                                              ; preds = %bb12
  %8 = bitcast { i8*, i32 }* %3 to i8**
  %9 = load i8*, i8** %8, align 8
  %10 = getelementptr inbounds { i8*, i32 }, { i8*, i32 }* %3, i32 0, i32 1
  %11 = load i32, i32* %10, align 8
  %12 = insertvalue { i8*, i32 } undef, i8* %9, 0
  %13 = insertvalue { i8*, i32 } %12, i32 %11, 1
  resume { i8*, i32 } %13

bb3:                                              ; preds = %bb1
  %_3 = xor i1 %_4, true
  br i1 %_3, label %bb5, label %bb4

bb4:                                              ; preds = %bb3
  %14 = bitcast %"core::result::Result<(), std::io::error::Error>"* %0 to %"core::result::Result<(), std::io::error::Error>::Ok"*
  %15 = bitcast %"core::result::Result<(), std::io::error::Error>::Ok"* %14 to {}*
  %16 = bitcast %"core::result::Result<(), std::io::error::Error>"* %0 to i8*
  store i8 3, i8* %16, align 8
  br label %bb10

bb5:                                              ; preds = %bb3
  %17 = getelementptr inbounds { [0 x i8]*, i64 }, { [0 x i8]*, i64 }* %buf, i32 0, i32 0
  %_8.0 = load [0 x i8]*, [0 x i8]** %17, align 8, !nonnull !3
  %18 = getelementptr inbounds { [0 x i8]*, i64 }, { [0 x i8]*, i64 }* %buf, i32 0, i32 1
  %_8.1 = load i64, i64* %18, align 8
  store i8 1, i8* %_30, align 1
; call <std::fs::File as std::io::Write>::write
  call void @"_ZN48_$LT$std..fs..File$u20$as$u20$std..io..Write$GT$5write17hd3a62969ddab3f26E"(%"core::result::Result<usize, std::io::error::Error>"* noalias nocapture sret dereferenceable(24) %_6, i32* align 4 dereferenceable(4) %self, [0 x i8]* noalias nonnull readonly align 1 %_8.0, i64 %_8.1)
  br label %bb6

bb6:                                              ; preds = %bb5
  %19 = bitcast %"core::result::Result<usize, std::io::error::Error>"* %_6 to i64*
  %_9 = load i64, i64* %19, align 8, !range !7
  switch i64 %_9, label %bb8 [
    i64 0, label %bb7
    i64 1, label %bb16
  ]

bb7:                                              ; preds = %bb6
  %20 = bitcast %"core::result::Result<usize, std::io::error::Error>"* %_6 to %"core::result::Result<usize, std::io::error::Error>::Ok"*
  %21 = getelementptr inbounds %"core::result::Result<usize, std::io::error::Error>::Ok", %"core::result::Result<usize, std::io::error::Error>::Ok"* %20, i32 0, i32 1
  %22 = load i64, i64* %21, align 8
  %23 = icmp eq i64 %22, 0
  br i1 %23, label %bb9, label %bb14

bb8:                                              ; preds = %bb6
  unreachable

bb9:                                              ; preds = %bb7
  store i8 14, i8* %_11, align 1
  %24 = load i8, i8* %_11, align 1, !range !8
; invoke std::io::error::Error::new
  invoke void @_ZN3std2io5error5Error3new17ha2accab2ab19ae7fE(%"std::io::error::Error"* noalias nocapture sret dereferenceable(16) %_10, i8 %24, [0 x i8]* noalias nonnull readonly align 1 bitcast (<{ [28 x i8] }>* @2 to [0 x i8]*), i64 28)
          to label %bb11 unwind label %cleanup

bb10:                                             ; preds = %bb4, %bb23
  ret void

bb11:                                             ; preds = %bb9
  %25 = bitcast %"core::result::Result<(), std::io::error::Error>"* %0 to %"core::result::Result<(), std::io::error::Error>::Err"*
  %26 = bitcast %"core::result::Result<(), std::io::error::Error>::Err"* %25 to %"std::io::error::Error"*
  %27 = bitcast %"std::io::error::Error"* %26 to i8*
  %28 = bitcast %"std::io::error::Error"* %_10 to i8*
  call void @llvm.memcpy.p0i8.p0i8.i64(i8* align 8 %27, i8* align 8 %28, i64 16, i1 false)
  br label %bb13

bb12:                                             ; preds = %cleanup
  store i8 0, i8* %_30, align 1
; call core::ptr::drop_in_place
  call void @_ZN4core3ptr13drop_in_place17h06af8c7a62386b7eE(%"core::result::Result<usize, std::io::error::Error>"* %_6) #11
  br label %bb2

bb13:                                             ; preds = %bb11, %bb20
  %29 = bitcast %"core::result::Result<usize, std::io::error::Error>"* %_6 to i64*
  %_31 = load i64, i64* %29, align 8, !range !7
  %30 = icmp eq i64 %_31, 1
  br i1 %30, label %bb24, label %bb26

bb14:                                             ; preds = %bb7
  %31 = bitcast %"core::result::Result<usize, std::io::error::Error>"* %_6 to %"core::result::Result<usize, std::io::error::Error>::Ok"*
  %32 = getelementptr inbounds %"core::result::Result<usize, std::io::error::Error>::Ok", %"core::result::Result<usize, std::io::error::Error>::Ok"* %31, i32 0, i32 1
  %n = load i64, i64* %32, align 8
  %33 = getelementptr inbounds { [0 x i8]*, i64 }, { [0 x i8]*, i64 }* %buf, i32 0, i32 0
  %_16.0 = load [0 x i8]*, [0 x i8]** %33, align 8, !nonnull !3
  %34 = getelementptr inbounds { [0 x i8]*, i64 }, { [0 x i8]*, i64 }* %buf, i32 0, i32 1
  %_16.1 = load i64, i64* %34, align 8
  store i64 %n, i64* %_17, align 8
  %35 = load i64, i64* %_17, align 8
; invoke core::slice::<impl core::ops::index::Index<I> for [T]>::index
  %36 = invoke { [0 x i8]*, i64 } @"_ZN4core5slice74_$LT$impl$u20$core..ops..index..Index$LT$I$GT$$u20$for$u20$$u5b$T$u5d$$GT$5index17h4617e04175df7addE"([0 x i8]* noalias nonnull readonly align 1 %_16.0, i64 %_16.1, i64 %35)
          to label %bb15 unwind label %cleanup

bb15:                                             ; preds = %bb14
  %_15.0 = extractvalue { [0 x i8]*, i64 } %36, 0
  %_15.1 = extractvalue { [0 x i8]*, i64 } %36, 1
  %37 = getelementptr inbounds { [0 x i8]*, i64 }, { [0 x i8]*, i64 }* %buf, i32 0, i32 0
  store [0 x i8]* %_15.0, [0 x i8]** %37, align 8
  %38 = getelementptr inbounds { [0 x i8]*, i64 }, { [0 x i8]*, i64 }* %buf, i32 0, i32 1
  store i64 %_15.1, i64* %38, align 8
  br label %bb21

bb16:                                             ; preds = %bb6
  %39 = bitcast %"core::result::Result<usize, std::io::error::Error>"* %_6 to %"core::result::Result<usize, std::io::error::Error>::Err"*
  %40 = getelementptr inbounds %"core::result::Result<usize, std::io::error::Error>::Err", %"core::result::Result<usize, std::io::error::Error>::Err"* %39, i32 0, i32 1
  store %"std::io::error::Error"* %40, %"std::io::error::Error"** %e, align 8
  %_24 = load %"std::io::error::Error"*, %"std::io::error::Error"** %e, align 8, !nonnull !3
; invoke std::io::error::Error::kind
  %41 = invoke i8 @_ZN3std2io5error5Error4kind17hf8ab75df463bc1f9E(%"std::io::error::Error"* noalias readonly align 8 dereferenceable(16) %_24)
          to label %bb17 unwind label %cleanup, !range !8

bb17:                                             ; preds = %bb16
  store i8 %41, i8* %_23, align 1
  %_29 = load i8*, i8** getelementptr inbounds (<{ i8*, [0 x i8] }>, <{ i8*, [0 x i8] }>* @1, i32 0, i32 0), align 8, !nonnull !3
; invoke <std::io::error::ErrorKind as core::cmp::PartialEq>::eq
  %_21 = invoke zeroext i1 @"_ZN66_$LT$std..io..error..ErrorKind$u20$as$u20$core..cmp..PartialEq$GT$2eq17h2e903b88736958ebE"(i8* noalias readonly align 1 dereferenceable(1) %_23, i8* noalias readonly align 1 dereferenceable(1) %_29)
          to label %bb18 unwind label %cleanup

bb18:                                             ; preds = %bb17
  br i1 %_21, label %bb19, label %bb20

bb19:                                             ; preds = %bb18
  br label %bb21

bb20:                                             ; preds = %bb18
  store i8 0, i8* %_30, align 1
  %42 = bitcast %"core::result::Result<usize, std::io::error::Error>"* %_6 to %"core::result::Result<usize, std::io::error::Error>::Err"*
  %43 = getelementptr inbounds %"core::result::Result<usize, std::io::error::Error>::Err", %"core::result::Result<usize, std::io::error::Error>::Err"* %42, i32 0, i32 1
  %44 = bitcast %"std::io::error::Error"* %e1 to i8*
  %45 = bitcast %"std::io::error::Error"* %43 to i8*
  call void @llvm.memcpy.p0i8.p0i8.i64(i8* align 8 %44, i8* align 8 %45, i64 16, i1 false)
  %46 = bitcast %"std::io::error::Error"* %_27 to i8*
  %47 = bitcast %"std::io::error::Error"* %e1 to i8*
  call void @llvm.memcpy.p0i8.p0i8.i64(i8* align 8 %46, i8* align 8 %47, i64 16, i1 false)
  %48 = bitcast %"core::result::Result<(), std::io::error::Error>"* %0 to %"core::result::Result<(), std::io::error::Error>::Err"*
  %49 = bitcast %"core::result::Result<(), std::io::error::Error>::Err"* %48 to %"std::io::error::Error"*
  %50 = bitcast %"std::io::error::Error"* %49 to i8*
  %51 = bitcast %"std::io::error::Error"* %_27 to i8*
  call void @llvm.memcpy.p0i8.p0i8.i64(i8* align 8 %50, i8* align 8 %51, i64 16, i1 false)
  br label %bb13

bb21:                                             ; preds = %bb15, %bb19
  store i8 0, i8* %_30, align 1
; call core::ptr::drop_in_place
  call void @_ZN4core3ptr13drop_in_place17h06af8c7a62386b7eE(%"core::result::Result<usize, std::io::error::Error>"* %_6)
  br label %bb22

bb22:                                             ; preds = %bb21
  store i8 0, i8* %_30, align 1
  br label %bb1

bb23:                                             ; preds = %bb25, %bb24, %bb26
  store i8 0, i8* %_30, align 1
  br label %bb10

bb24:                                             ; preds = %bb13
  %52 = load i8, i8* %_30, align 1, !range !2
  %53 = trunc i8 %52 to i1
  br i1 %53, label %bb25, label %bb23

bb25:                                             ; preds = %bb24
  store i8 0, i8* %_30, align 1
  %54 = bitcast %"core::result::Result<usize, std::io::error::Error>"* %_6 to %"core::result::Result<usize, std::io::error::Error>::Err"*
  %55 = getelementptr inbounds %"core::result::Result<usize, std::io::error::Error>::Err", %"core::result::Result<usize, std::io::error::Error>::Err"* %54, i32 0, i32 1
; call core::ptr::drop_in_place
  call void @_ZN4core3ptr13drop_in_place17he9a4eba9167d52a3E(%"std::io::error::Error"* %55)
  br label %bb23

bb26:                                             ; preds = %bb13
; call core::ptr::drop_in_place
  call void @_ZN4core3ptr13drop_in_place17h06af8c7a62386b7eE(%"core::result::Result<usize, std::io::error::Error>"* %_6)
  br label %bb23

cleanup:                                          ; preds = %bb9, %bb14, %bb17, %bb16
  %56 = landingpad { i8*, i32 }
          cleanup
  %57 = extractvalue { i8*, i32 } %56, 0
  %58 = extractvalue { i8*, i32 } %56, 1
  %59 = getelementptr inbounds { i8*, i32 }, { i8*, i32 }* %3, i32 0, i32 0
  store i8* %57, i8** %59, align 8
  %60 = getelementptr inbounds { i8*, i32 }, { i8*, i32 }* %3, i32 0, i32 1
  store i32 %58, i32* %60, align 8
  br label %bb12
}

; std::io::error::Error::new
; Function Attrs: uwtable
define internal void @_ZN3std2io5error5Error3new17ha2accab2ab19ae7fE(%"std::io::error::Error"* noalias nocapture sret dereferenceable(16), i8 %kind, [0 x i8]* noalias nonnull readonly align 1 %error.0, i64 %error.1) unnamed_addr #1 {
start:
; call <T as core::convert::Into<U>>::into
  %1 = call { {}*, [3 x i64]* } @"_ZN50_$LT$T$u20$as$u20$core..convert..Into$LT$U$GT$$GT$4into17hf33af1030fdac612E"([0 x i8]* noalias nonnull readonly align 1 %error.0, i64 %error.1)
  %_5.0 = extractvalue { {}*, [3 x i64]* } %1, 0
  %_5.1 = extractvalue { {}*, [3 x i64]* } %1, 1
  br label %bb1

bb1:                                              ; preds = %start
; call std::io::error::Error::_new
  call void @_ZN3std2io5error5Error4_new17h3c0f200b258e1f6fE(%"std::io::error::Error"* noalias nocapture sret dereferenceable(16) %0, i8 %kind, {}* noalias nonnull align 1 %_5.0, [3 x i64]* noalias readonly align 8 dereferenceable(24) %_5.1)
  br label %bb2

bb2:                                              ; preds = %bb1
  ret void
}

; std::rt::lang_start
; Function Attrs: uwtable
define hidden i64 @_ZN3std2rt10lang_start17h3cd84ab00e9ed80aE(void ()* nonnull %main, i64 %argc, i8** %argv) unnamed_addr #1 {
start:
  %_7 = alloca i8*, align 8
  %0 = bitcast i8** %_7 to void ()**
  store void ()* %main, void ()** %0, align 8
  %_4.0 = bitcast i8** %_7 to {}*
; call std::rt::lang_start_internal
  %1 = call i64 @_ZN3std2rt19lang_start_internal17h43d6a3574145f771E({}* nonnull align 1 %_4.0, [3 x i64]* noalias readonly align 8 dereferenceable(24) bitcast ({ void (i8**)*, i64, i64, i32 (i8**)*, i32 (i8**)*, i32 (i8**)* }* @vtable.0 to [3 x i64]*), i64 %argc, i8** %argv)
  br label %bb1

bb1:                                              ; preds = %start
  ret i64 %1
}

; std::rt::lang_start::{{closure}}
; Function Attrs: uwtable
define internal i32 @"_ZN3std2rt10lang_start28_$u7b$$u7b$closure$u7d$$u7d$17h71f96d02a69c3991E"(i8** noalias readonly align 8 dereferenceable(8) %_1) unnamed_addr #1 {
start:
  %0 = bitcast i8** %_1 to void ()**
  %_3 = load void ()*, void ()** %0, align 8, !nonnull !3
  call void %_3()
  br label %bb1

bb1:                                              ; preds = %start
; call <() as std::process::Termination>::report
  %1 = call i32 @"_ZN54_$LT$$LP$$RP$$u20$as$u20$std..process..Termination$GT$6report17hd318390af70a5305E"()
  br label %bb2

bb2:                                              ; preds = %bb1
  ret i32 %1
}

; std::env::var
; Function Attrs: uwtable
define internal void @_ZN3std3env3var17h97be15dd51090d0bE(%"core::result::Result<alloc::string::String, std::env::VarError>"* noalias nocapture sret dereferenceable(32), [0 x i8]* noalias nonnull readonly align 1, i64) unnamed_addr #1 personality i32 (i32, i32, i64, %"unwind::libunwind::_Unwind_Exception"*, %"unwind::libunwind::_Unwind_Context"*)* @rust_eh_personality {
start:
  %3 = alloca { i8*, i32 }, align 8
  %key = alloca { [0 x i8]*, i64 }, align 8
  %4 = getelementptr inbounds { [0 x i8]*, i64 }, { [0 x i8]*, i64 }* %key, i32 0, i32 0
  store [0 x i8]* %1, [0 x i8]** %4, align 8
  %5 = getelementptr inbounds { [0 x i8]*, i64 }, { [0 x i8]*, i64 }* %key, i32 0, i32 1
  store i64 %2, i64* %5, align 8
; invoke <&T as core::convert::AsRef<U>>::as_ref
  %6 = invoke { %"std::ffi::os_str::OsStr"*, i64 } @"_ZN55_$LT$$RF$T$u20$as$u20$core..convert..AsRef$LT$U$GT$$GT$6as_ref17h87674e97f89fc7b4E"({ [0 x i8]*, i64 }* noalias readonly align 8 dereferenceable(16) %key)
          to label %bb2 unwind label %cleanup

bb1:                                              ; preds = %bb3
  %7 = bitcast { i8*, i32 }* %3 to i8**
  %8 = load i8*, i8** %7, align 8
  %9 = getelementptr inbounds { i8*, i32 }, { i8*, i32 }* %3, i32 0, i32 1
  %10 = load i32, i32* %9, align 8
  %11 = insertvalue { i8*, i32 } undef, i8* %8, 0
  %12 = insertvalue { i8*, i32 } %11, i32 %10, 1
  resume { i8*, i32 } %12

bb2:                                              ; preds = %start
  %_3.0 = extractvalue { %"std::ffi::os_str::OsStr"*, i64 } %6, 0
  %_3.1 = extractvalue { %"std::ffi::os_str::OsStr"*, i64 } %6, 1
; invoke std::env::_var
  invoke void @_ZN3std3env4_var17hc967e191e2bf8510E(%"core::result::Result<alloc::string::String, std::env::VarError>"* noalias nocapture sret dereferenceable(32) %0, %"std::ffi::os_str::OsStr"* noalias nonnull readonly align 1 %_3.0, i64 %_3.1)
          to label %bb4 unwind label %cleanup

bb3:                                              ; preds = %cleanup
  br label %bb1

bb4:                                              ; preds = %bb2
  br label %bb5

bb5:                                              ; preds = %bb4
  ret void

cleanup:                                          ; preds = %bb2, %start
  %13 = landingpad { i8*, i32 }
          cleanup
  %14 = extractvalue { i8*, i32 } %13, 0
  %15 = extractvalue { i8*, i32 } %13, 1
  %16 = getelementptr inbounds { i8*, i32 }, { i8*, i32 }* %3, i32 0, i32 0
  store i8* %14, i8** %16, align 8
  %17 = getelementptr inbounds { i8*, i32 }, { i8*, i32 }* %3, i32 0, i32 1
  store i32 %15, i32* %17, align 8
  br label %bb3
}

; std::ffi::os_str::<impl core::convert::AsRef<std::ffi::os_str::OsStr> for alloc::string::String>::as_ref
; Function Attrs: inlinehint uwtable
define internal { %"std::ffi::os_str::OsStr"*, i64 } @"_ZN3std3ffi6os_str103_$LT$impl$u20$core..convert..AsRef$LT$std..ffi..os_str..OsStr$GT$$u20$for$u20$alloc..string..String$GT$6as_ref17h4acff9c3cf577d32E"(%"alloc::string::String"* noalias readonly align 8 dereferenceable(24) %self) unnamed_addr #0 {
start:
; call <alloc::string::String as core::ops::deref::Deref>::deref
  %0 = call { [0 x i8]*, i64 } @"_ZN65_$LT$alloc..string..String$u20$as$u20$core..ops..deref..Deref$GT$5deref17h1cc89c6851343a42E"(%"alloc::string::String"* noalias readonly align 8 dereferenceable(24) %self)
  %_5.0 = extractvalue { [0 x i8]*, i64 } %0, 0
  %_5.1 = extractvalue { [0 x i8]*, i64 } %0, 1
  br label %bb1

bb1:                                              ; preds = %start
; call std::ffi::os_str::<impl core::convert::AsRef<std::ffi::os_str::OsStr> for str>::as_ref
  %1 = call { %"std::ffi::os_str::OsStr"*, i64 } @"_ZN3std3ffi6os_str85_$LT$impl$u20$core..convert..AsRef$LT$std..ffi..os_str..OsStr$GT$$u20$for$u20$str$GT$6as_ref17ha2cc1a84f29adeeeE"([0 x i8]* noalias nonnull readonly align 1 %_5.0, i64 %_5.1)
  %_2.0 = extractvalue { %"std::ffi::os_str::OsStr"*, i64 } %1, 0
  %_2.1 = extractvalue { %"std::ffi::os_str::OsStr"*, i64 } %1, 1
  br label %bb2

bb2:                                              ; preds = %bb1
  %2 = insertvalue { %"std::ffi::os_str::OsStr"*, i64 } undef, %"std::ffi::os_str::OsStr"* %_2.0, 0
  %3 = insertvalue { %"std::ffi::os_str::OsStr"*, i64 } %2, i64 %_2.1, 1
  ret { %"std::ffi::os_str::OsStr"*, i64 } %3
}

; std::ffi::os_str::OsStr::from_inner
; Function Attrs: inlinehint uwtable
define internal { %"std::ffi::os_str::OsStr"*, i64 } @_ZN3std3ffi6os_str5OsStr10from_inner17h883878895e111fe2E(%"std::sys_common::os_str_bytes::Slice"* noalias nonnull readonly align 1 %inner.0, i64 %inner.1) unnamed_addr #0 {
start:
  %_3.0 = bitcast %"std::sys_common::os_str_bytes::Slice"* %inner.0 to %"std::ffi::os_str::OsStr"*
  %0 = insertvalue { %"std::ffi::os_str::OsStr"*, i64 } undef, %"std::ffi::os_str::OsStr"* %_3.0, 0
  %1 = insertvalue { %"std::ffi::os_str::OsStr"*, i64 } %0, i64 %inner.1, 1
  ret { %"std::ffi::os_str::OsStr"*, i64 } %1
}

; std::ffi::os_str::<impl core::convert::AsRef<std::ffi::os_str::OsStr> for str>::as_ref
; Function Attrs: inlinehint uwtable
define internal { %"std::ffi::os_str::OsStr"*, i64 } @"_ZN3std3ffi6os_str85_$LT$impl$u20$core..convert..AsRef$LT$std..ffi..os_str..OsStr$GT$$u20$for$u20$str$GT$6as_ref17ha2cc1a84f29adeeeE"([0 x i8]* noalias nonnull readonly align 1 %self.0, i64 %self.1) unnamed_addr #0 {
start:
; call std::sys_common::os_str_bytes::Slice::from_str
  %0 = call { %"std::sys_common::os_str_bytes::Slice"*, i64 } @_ZN3std10sys_common12os_str_bytes5Slice8from_str17he6e8aea9a6f6a3ffE([0 x i8]* noalias nonnull readonly align 1 %self.0, i64 %self.1)
  %_4.0 = extractvalue { %"std::sys_common::os_str_bytes::Slice"*, i64 } %0, 0
  %_4.1 = extractvalue { %"std::sys_common::os_str_bytes::Slice"*, i64 } %0, 1
  br label %bb1

bb1:                                              ; preds = %start
; call std::ffi::os_str::OsStr::from_inner
  %1 = call { %"std::ffi::os_str::OsStr"*, i64 } @_ZN3std3ffi6os_str5OsStr10from_inner17h883878895e111fe2E(%"std::sys_common::os_str_bytes::Slice"* noalias nonnull readonly align 1 %_4.0, i64 %_4.1)
  %_2.0 = extractvalue { %"std::ffi::os_str::OsStr"*, i64 } %1, 0
  %_2.1 = extractvalue { %"std::ffi::os_str::OsStr"*, i64 } %1, 1
  br label %bb2

bb2:                                              ; preds = %bb1
  %2 = insertvalue { %"std::ffi::os_str::OsStr"*, i64 } undef, %"std::ffi::os_str::OsStr"* %_2.0, 0
  %3 = insertvalue { %"std::ffi::os_str::OsStr"*, i64 } %2, i64 %_2.1, 1
  ret { %"std::ffi::os_str::OsStr"*, i64 } %3
}

; std::sys::unix::process::process_common::ExitCode::as_i32
; Function Attrs: inlinehint uwtable
define internal i32 @_ZN3std3sys4unix7process14process_common8ExitCode6as_i3217h0db37e7937453355E(i8* noalias readonly align 1 dereferenceable(1) %self) unnamed_addr #0 {
start:
  %_2 = load i8, i8* %self, align 1
  %0 = zext i8 %_2 to i32
  ret i32 %0
}

; std::path::Path::new
; Function Attrs: uwtable
define internal { %"std::path::Path"*, i64 } @_ZN3std4path4Path3new17h0d9f414a21daaa1cE([0 x i8]* noalias nonnull readonly align 1 %s.0, i64 %s.1) unnamed_addr #1 {
start:
; call std::ffi::os_str::<impl core::convert::AsRef<std::ffi::os_str::OsStr> for str>::as_ref
  %0 = call { %"std::ffi::os_str::OsStr"*, i64 } @"_ZN3std3ffi6os_str85_$LT$impl$u20$core..convert..AsRef$LT$std..ffi..os_str..OsStr$GT$$u20$for$u20$str$GT$6as_ref17ha2cc1a84f29adeeeE"([0 x i8]* noalias nonnull readonly align 1 %s.0, i64 %s.1)
  %_5.0 = extractvalue { %"std::ffi::os_str::OsStr"*, i64 } %0, 0
  %_5.1 = extractvalue { %"std::ffi::os_str::OsStr"*, i64 } %0, 1
  br label %bb1

bb1:                                              ; preds = %start
  %_3.0 = bitcast %"std::ffi::os_str::OsStr"* %_5.0 to %"std::path::Path"*
  %1 = insertvalue { %"std::path::Path"*, i64 } undef, %"std::path::Path"* %_3.0, 0
  %2 = insertvalue { %"std::path::Path"*, i64 } %1, i64 %_5.1, 1
  ret { %"std::path::Path"*, i64 } %2
}

; std::path::Path::new
; Function Attrs: uwtable
define internal { %"std::path::Path"*, i64 } @_ZN3std4path4Path3new17h24f1b24a0eb4d135E(%"std::ffi::os_str::OsString"* noalias readonly align 8 dereferenceable(24) %s) unnamed_addr #1 {
start:
; call <std::ffi::os_str::OsString as core::convert::AsRef<std::ffi::os_str::OsStr>>::as_ref
  %0 = call { %"std::ffi::os_str::OsStr"*, i64 } @"_ZN98_$LT$std..ffi..os_str..OsString$u20$as$u20$core..convert..AsRef$LT$std..ffi..os_str..OsStr$GT$$GT$6as_ref17h17b0d02d07535f96E"(%"std::ffi::os_str::OsString"* noalias readonly align 8 dereferenceable(24) %s)
  %_5.0 = extractvalue { %"std::ffi::os_str::OsStr"*, i64 } %0, 0
  %_5.1 = extractvalue { %"std::ffi::os_str::OsStr"*, i64 } %0, 1
  br label %bb1

bb1:                                              ; preds = %start
  %_3.0 = bitcast %"std::ffi::os_str::OsStr"* %_5.0 to %"std::path::Path"*
  %1 = insertvalue { %"std::path::Path"*, i64 } undef, %"std::path::Path"* %_3.0, 0
  %2 = insertvalue { %"std::path::Path"*, i64 } %1, i64 %_5.1, 1
  ret { %"std::path::Path"*, i64 } %2
}

; std::path::Path::new
; Function Attrs: uwtable
define internal { %"std::path::Path"*, i64 } @_ZN3std4path4Path3new17h59e9e92363ae591eE(%"alloc::string::String"* noalias readonly align 8 dereferenceable(24) %s) unnamed_addr #1 {
start:
; call std::ffi::os_str::<impl core::convert::AsRef<std::ffi::os_str::OsStr> for alloc::string::String>::as_ref
  %0 = call { %"std::ffi::os_str::OsStr"*, i64 } @"_ZN3std3ffi6os_str103_$LT$impl$u20$core..convert..AsRef$LT$std..ffi..os_str..OsStr$GT$$u20$for$u20$alloc..string..String$GT$6as_ref17h4acff9c3cf577d32E"(%"alloc::string::String"* noalias readonly align 8 dereferenceable(24) %s)
  %_5.0 = extractvalue { %"std::ffi::os_str::OsStr"*, i64 } %0, 0
  %_5.1 = extractvalue { %"std::ffi::os_str::OsStr"*, i64 } %0, 1
  br label %bb1

bb1:                                              ; preds = %start
  %_3.0 = bitcast %"std::ffi::os_str::OsStr"* %_5.0 to %"std::path::Path"*
  %1 = insertvalue { %"std::path::Path"*, i64 } undef, %"std::path::Path"* %_3.0, 0
  %2 = insertvalue { %"std::path::Path"*, i64 } %1, i64 %_5.1, 1
  ret { %"std::path::Path"*, i64 } %2
}

; std::path::Path::join
; Function Attrs: uwtable
define internal void @_ZN3std4path4Path4join17h7c35a9b0f118c506E(%"std::path::PathBuf"* noalias nocapture sret dereferenceable(24), %"std::path::Path"* noalias nonnull readonly align 1 %self.0, i64 %self.1, [0 x i8]* noalias nonnull readonly align 1, i64) unnamed_addr #1 personality i32 (i32, i32, i64, %"unwind::libunwind::_Unwind_Exception"*, %"unwind::libunwind::_Unwind_Context"*)* @rust_eh_personality {
start:
  %3 = alloca { i8*, i32 }, align 8
  %path = alloca { [0 x i8]*, i64 }, align 8
  %4 = getelementptr inbounds { [0 x i8]*, i64 }, { [0 x i8]*, i64 }* %path, i32 0, i32 0
  store [0 x i8]* %1, [0 x i8]** %4, align 8
  %5 = getelementptr inbounds { [0 x i8]*, i64 }, { [0 x i8]*, i64 }* %path, i32 0, i32 1
  store i64 %2, i64* %5, align 8
; invoke <&T as core::convert::AsRef<U>>::as_ref
  %6 = invoke { %"std::path::Path"*, i64 } @"_ZN55_$LT$$RF$T$u20$as$u20$core..convert..AsRef$LT$U$GT$$GT$6as_ref17hc6c902172cc93bdaE"({ [0 x i8]*, i64 }* noalias readonly align 8 dereferenceable(16) %path)
          to label %bb2 unwind label %cleanup

bb1:                                              ; preds = %bb3
  %7 = bitcast { i8*, i32 }* %3 to i8**
  %8 = load i8*, i8** %7, align 8
  %9 = getelementptr inbounds { i8*, i32 }, { i8*, i32 }* %3, i32 0, i32 1
  %10 = load i32, i32* %9, align 8
  %11 = insertvalue { i8*, i32 } undef, i8* %8, 0
  %12 = insertvalue { i8*, i32 } %11, i32 %10, 1
  resume { i8*, i32 } %12

bb2:                                              ; preds = %start
  %_5.0 = extractvalue { %"std::path::Path"*, i64 } %6, 0
  %_5.1 = extractvalue { %"std::path::Path"*, i64 } %6, 1
; invoke std::path::Path::_join
  invoke void @_ZN3std4path4Path5_join17h643eb6d59eed27e5E(%"std::path::PathBuf"* noalias nocapture sret dereferenceable(24) %0, %"std::path::Path"* noalias nonnull readonly align 1 %self.0, i64 %self.1, %"std::path::Path"* noalias nonnull readonly align 1 %_5.0, i64 %_5.1)
          to label %bb4 unwind label %cleanup

bb3:                                              ; preds = %cleanup
  br label %bb1

bb4:                                              ; preds = %bb2
  br label %bb5

bb5:                                              ; preds = %bb4
  ret void

cleanup:                                          ; preds = %bb2, %start
  %13 = landingpad { i8*, i32 }
          cleanup
  %14 = extractvalue { i8*, i32 } %13, 0
  %15 = extractvalue { i8*, i32 } %13, 1
  %16 = getelementptr inbounds { i8*, i32 }, { i8*, i32 }* %3, i32 0, i32 0
  store i8* %14, i8** %16, align 8
  %17 = getelementptr inbounds { i8*, i32 }, { i8*, i32 }* %3, i32 0, i32 1
  store i32 %15, i32* %17, align 8
  br label %bb3
}

; std::path::<impl core::convert::AsRef<std::path::Path> for str>::as_ref
; Function Attrs: inlinehint uwtable
define internal { %"std::path::Path"*, i64 } @"_ZN3std4path77_$LT$impl$u20$core..convert..AsRef$LT$std..path..Path$GT$$u20$for$u20$str$GT$6as_ref17h91ca8d710e5cc396E"([0 x i8]* noalias nonnull readonly align 1 %self.0, i64 %self.1) unnamed_addr #0 {
start:
; call std::path::Path::new
  %0 = call { %"std::path::Path"*, i64 } @_ZN3std4path4Path3new17h0d9f414a21daaa1cE([0 x i8]* noalias nonnull readonly align 1 %self.0, i64 %self.1)
  %_2.0 = extractvalue { %"std::path::Path"*, i64 } %0, 0
  %_2.1 = extractvalue { %"std::path::Path"*, i64 } %0, 1
  br label %bb1

bb1:                                              ; preds = %start
  %1 = insertvalue { %"std::path::Path"*, i64 } undef, %"std::path::Path"* %_2.0, 0
  %2 = insertvalue { %"std::path::Path"*, i64 } %1, i64 %_2.1, 1
  ret { %"std::path::Path"*, i64 } %2
}

; std::error::<impl core::convert::From<&str> for alloc::boxed::Box<dyn std::error::Error+core::marker::Send+core::marker::Sync>>::from
; Function Attrs: inlinehint uwtable
define internal { {}*, [3 x i64]* } @"_ZN3std5error161_$LT$impl$u20$core..convert..From$LT$$RF$str$GT$$u20$for$u20$alloc..boxed..Box$LT$dyn$u20$std..error..Error$u2b$core..marker..Send$u2b$core..marker..Sync$GT$$GT$4from17h34d7f493868b8d6aE"([0 x i8]* noalias nonnull readonly align 1 %err.0, i64 %err.1) unnamed_addr #0 {
start:
  %_3 = alloca %"alloc::string::String", align 8
; call <alloc::string::String as core::convert::From<&str>>::from
  call void @"_ZN76_$LT$alloc..string..String$u20$as$u20$core..convert..From$LT$$RF$str$GT$$GT$4from17ha3a90a831bbafcdcE"(%"alloc::string::String"* noalias nocapture sret dereferenceable(24) %_3, [0 x i8]* noalias nonnull readonly align 1 %err.0, i64 %err.1)
  br label %bb1

bb1:                                              ; preds = %start
; call std::error::<impl core::convert::From<alloc::string::String> for alloc::boxed::Box<dyn std::error::Error+core::marker::Send+core::marker::Sync>>::from
  %0 = call { {}*, [3 x i64]* } @"_ZN3std5error175_$LT$impl$u20$core..convert..From$LT$alloc..string..String$GT$$u20$for$u20$alloc..boxed..Box$LT$dyn$u20$std..error..Error$u2b$core..marker..Send$u2b$core..marker..Sync$GT$$GT$4from17h2086296bf855ececE"(%"alloc::string::String"* noalias nocapture dereferenceable(24) %_3)
  %_2.0 = extractvalue { {}*, [3 x i64]* } %0, 0
  %_2.1 = extractvalue { {}*, [3 x i64]* } %0, 1
  br label %bb2

bb2:                                              ; preds = %bb1
  %1 = insertvalue { {}*, [3 x i64]* } undef, {}* %_2.0, 0
  %2 = insertvalue { {}*, [3 x i64]* } %1, [3 x i64]* %_2.1, 1
  ret { {}*, [3 x i64]* } %2
}

; std::error::<impl core::convert::From<alloc::string::String> for alloc::boxed::Box<dyn std::error::Error+core::marker::Send+core::marker::Sync>>::from
; Function Attrs: inlinehint uwtable
define internal { {}*, [3 x i64]* } @"_ZN3std5error175_$LT$impl$u20$core..convert..From$LT$alloc..string..String$GT$$u20$for$u20$alloc..boxed..Box$LT$dyn$u20$std..error..Error$u2b$core..marker..Send$u2b$core..marker..Sync$GT$$GT$4from17h2086296bf855ececE"(%"alloc::string::String"* noalias nocapture dereferenceable(24) %err) unnamed_addr #0 {
start:
  %_5 = alloca %"alloc::string::String", align 8
  %_4 = alloca %"std::error::{{impl}}::from::StringError", align 8
  %0 = bitcast %"alloc::string::String"* %_5 to i8*
  %1 = bitcast %"alloc::string::String"* %err to i8*
  call void @llvm.memcpy.p0i8.p0i8.i64(i8* align 8 %0, i8* align 8 %1, i64 24, i1 false)
  %2 = bitcast %"std::error::{{impl}}::from::StringError"* %_4 to %"alloc::string::String"*
  %3 = bitcast %"alloc::string::String"* %2 to i8*
  %4 = bitcast %"alloc::string::String"* %_5 to i8*
  call void @llvm.memcpy.p0i8.p0i8.i64(i8* align 8 %3, i8* align 8 %4, i64 24, i1 false)
; call alloc::alloc::exchange_malloc
  %5 = call i8* @_ZN5alloc5alloc15exchange_malloc17ha561fdc9a3571978E(i64 24, i64 8), !noalias !9
  %_2.i = bitcast i8* %5 to %"std::error::{{impl}}::from::StringError"*
  %6 = bitcast %"std::error::{{impl}}::from::StringError"* %_4 to i8*
  call void @llvm.memcpy.p0i8.p0i8.i64(i8* align 8 %5, i8* align 8 %6, i64 24, i1 false)
  br label %bb1

bb1:                                              ; preds = %start
  %7 = bitcast %"std::error::{{impl}}::from::StringError"* %_2.i to {}*
  %8 = bitcast {}* %7 to i8*
  %_2.0 = bitcast i8* %8 to {}*
  %9 = insertvalue { {}*, [3 x i64]* } undef, {}* %_2.0, 0
  %10 = insertvalue { {}*, [3 x i64]* } %9, [3 x i64]* bitcast ({ void (%"std::error::{{impl}}::from::StringError"*)*, i64, i64, { i8*, i8* } (%"std::error::{{impl}}::from::StringError"*)*, i64 (%"std::error::{{impl}}::from::StringError"*)*, i64* (%"std::error::{{impl}}::from::StringError"*)*, { [0 x i8]*, i64 } (%"std::error::{{impl}}::from::StringError"*)*, { i8*, i8* } (%"std::error::{{impl}}::from::StringError"*)*, i1 (%"std::error::{{impl}}::from::StringError"*, %"core::fmt::Formatter"*)*, i1 (%"std::error::{{impl}}::from::StringError"*, %"core::fmt::Formatter"*)* }* @vtable.1 to [3 x i64]*), 1
  ret { {}*, [3 x i64]* } %10
}

; std::error::Error::cause
; Function Attrs: uwtable
define internal { i8*, i8* } @_ZN3std5error5Error5cause17h78d4f47ab1e50866E(%"std::error::{{impl}}::from::StringError"* noalias readonly align 8 dereferenceable(24) %self) unnamed_addr #1 {
start:
; call std::error::Error::source
  %0 = call { i8*, i8* } @_ZN3std5error5Error6source17ha4b8e670184235baE(%"std::error::{{impl}}::from::StringError"* noalias readonly align 8 dereferenceable(24) %self)
  %1 = extractvalue { i8*, i8* } %0, 0
  %2 = extractvalue { i8*, i8* } %0, 1
  br label %bb1

bb1:                                              ; preds = %start
  %3 = insertvalue { i8*, i8* } undef, i8* %1, 0
  %4 = insertvalue { i8*, i8* } %3, i8* %2, 1
  ret { i8*, i8* } %4
}

; std::error::Error::source
; Function Attrs: uwtable
define internal { i8*, i8* } @_ZN3std5error5Error6source17ha4b8e670184235baE(%"std::error::{{impl}}::from::StringError"* noalias readonly align 8 dereferenceable(24) %self) unnamed_addr #1 {
start:
  %0 = alloca { i8*, i8* }, align 8
  %1 = bitcast { i8*, i8* }* %0 to {}**
  store {}* null, {}** %1, align 8
  %2 = getelementptr inbounds { i8*, i8* }, { i8*, i8* }* %0, i32 0, i32 0
  %3 = load i8*, i8** %2, align 8
  %4 = getelementptr inbounds { i8*, i8* }, { i8*, i8* }* %0, i32 0, i32 1
  %5 = load i8*, i8** %4, align 8
  %6 = insertvalue { i8*, i8* } undef, i8* %3, 0
  %7 = insertvalue { i8*, i8* } %6, i8* %5, 1
  ret { i8*, i8* } %7
}

; std::error::Error::type_id
; Function Attrs: uwtable
define internal i64 @_ZN3std5error5Error7type_id17he016f7475e60945fE(%"std::error::{{impl}}::from::StringError"* noalias readonly align 8 dereferenceable(24) %self) unnamed_addr #1 {
start:
; call core::any::TypeId::of
  %0 = call i64 @_ZN4core3any6TypeId2of17hdc92dbf95789a1b2E()
  br label %bb1

bb1:                                              ; preds = %start
  ret i64 %0
}

; std::error::Error::backtrace
; Function Attrs: uwtable
define internal align 8 dereferenceable_or_null(64) i64* @_ZN3std5error5Error9backtrace17hdca9b7465e59b922E(%"std::error::{{impl}}::from::StringError"* noalias readonly align 8 dereferenceable(24) %self) unnamed_addr #1 {
start:
  ret i64* null
}

; std::process::Command::arg
; Function Attrs: uwtable
define internal align 8 dereferenceable(184) %"std::process::Command"* @_ZN3std7process7Command3arg17h26e3fd2ac9d8a355E(%"std::process::Command"* align 8 dereferenceable(184) %self, [0 x i8]* noalias nonnull readonly align 1, i64) unnamed_addr #1 personality i32 (i32, i32, i64, %"unwind::libunwind::_Unwind_Exception"*, %"unwind::libunwind::_Unwind_Context"*)* @rust_eh_personality {
start:
  %2 = alloca { i8*, i32 }, align 8
  %arg = alloca { [0 x i8]*, i64 }, align 8
  %3 = getelementptr inbounds { [0 x i8]*, i64 }, { [0 x i8]*, i64 }* %arg, i32 0, i32 0
  store [0 x i8]* %0, [0 x i8]** %3, align 8
  %4 = getelementptr inbounds { [0 x i8]*, i64 }, { [0 x i8]*, i64 }* %arg, i32 0, i32 1
  store i64 %1, i64* %4, align 8
  %_5 = bitcast %"std::process::Command"* %self to %"std::sys::unix::process::process_common::Command"*
; invoke <&T as core::convert::AsRef<U>>::as_ref
  %5 = invoke { %"std::ffi::os_str::OsStr"*, i64 } @"_ZN55_$LT$$RF$T$u20$as$u20$core..convert..AsRef$LT$U$GT$$GT$6as_ref17h87674e97f89fc7b4E"({ [0 x i8]*, i64 }* noalias readonly align 8 dereferenceable(16) %arg)
          to label %bb2 unwind label %cleanup

bb1:                                              ; preds = %bb3
  %6 = bitcast { i8*, i32 }* %2 to i8**
  %7 = load i8*, i8** %6, align 8
  %8 = getelementptr inbounds { i8*, i32 }, { i8*, i32 }* %2, i32 0, i32 1
  %9 = load i32, i32* %8, align 8
  %10 = insertvalue { i8*, i32 } undef, i8* %7, 0
  %11 = insertvalue { i8*, i32 } %10, i32 %9, 1
  resume { i8*, i32 } %11

bb2:                                              ; preds = %start
  %_7.0 = extractvalue { %"std::ffi::os_str::OsStr"*, i64 } %5, 0
  %_7.1 = extractvalue { %"std::ffi::os_str::OsStr"*, i64 } %5, 1
; invoke std::sys::unix::process::process_common::Command::arg
  invoke void @_ZN3std3sys4unix7process14process_common7Command3arg17h784f406fc2986562E(%"std::sys::unix::process::process_common::Command"* align 8 dereferenceable(184) %_5, %"std::ffi::os_str::OsStr"* noalias nonnull readonly align 1 %_7.0, i64 %_7.1)
          to label %bb4 unwind label %cleanup

bb3:                                              ; preds = %cleanup
  br label %bb1

bb4:                                              ; preds = %bb2
  br label %bb5

bb5:                                              ; preds = %bb4
  ret %"std::process::Command"* %self

cleanup:                                          ; preds = %bb2, %start
  %12 = landingpad { i8*, i32 }
          cleanup
  %13 = extractvalue { i8*, i32 } %12, 0
  %14 = extractvalue { i8*, i32 } %12, 1
  %15 = getelementptr inbounds { i8*, i32 }, { i8*, i32 }* %2, i32 0, i32 0
  store i8* %13, i8** %15, align 8
  %16 = getelementptr inbounds { i8*, i32 }, { i8*, i32 }* %2, i32 0, i32 1
  store i32 %14, i32* %16, align 8
  br label %bb3
}

; std::process::Command::new
; Function Attrs: uwtable
define internal void @_ZN3std7process7Command3new17h21852c40a21d9d53E(%"std::process::Command"* noalias nocapture sret dereferenceable(184), [0 x i8]* noalias nonnull readonly align 1, i64) unnamed_addr #1 personality i32 (i32, i32, i64, %"unwind::libunwind::_Unwind_Exception"*, %"unwind::libunwind::_Unwind_Context"*)* @rust_eh_personality {
start:
  %3 = alloca { i8*, i32 }, align 8
  %_2 = alloca %"std::sys::unix::process::process_common::Command", align 8
  %program = alloca { [0 x i8]*, i64 }, align 8
  %4 = getelementptr inbounds { [0 x i8]*, i64 }, { [0 x i8]*, i64 }* %program, i32 0, i32 0
  store [0 x i8]* %1, [0 x i8]** %4, align 8
  %5 = getelementptr inbounds { [0 x i8]*, i64 }, { [0 x i8]*, i64 }* %program, i32 0, i32 1
  store i64 %2, i64* %5, align 8
; invoke <&T as core::convert::AsRef<U>>::as_ref
  %6 = invoke { %"std::ffi::os_str::OsStr"*, i64 } @"_ZN55_$LT$$RF$T$u20$as$u20$core..convert..AsRef$LT$U$GT$$GT$6as_ref17h87674e97f89fc7b4E"({ [0 x i8]*, i64 }* noalias readonly align 8 dereferenceable(16) %program)
          to label %bb2 unwind label %cleanup

bb1:                                              ; preds = %bb3
  %7 = bitcast { i8*, i32 }* %3 to i8**
  %8 = load i8*, i8** %7, align 8
  %9 = getelementptr inbounds { i8*, i32 }, { i8*, i32 }* %3, i32 0, i32 1
  %10 = load i32, i32* %9, align 8
  %11 = insertvalue { i8*, i32 } undef, i8* %8, 0
  %12 = insertvalue { i8*, i32 } %11, i32 %10, 1
  resume { i8*, i32 } %12

bb2:                                              ; preds = %start
  %_4.0 = extractvalue { %"std::ffi::os_str::OsStr"*, i64 } %6, 0
  %_4.1 = extractvalue { %"std::ffi::os_str::OsStr"*, i64 } %6, 1
; invoke std::sys::unix::process::process_common::Command::new
  invoke void @_ZN3std3sys4unix7process14process_common7Command3new17h398a372867c8a7e5E(%"std::sys::unix::process::process_common::Command"* noalias nocapture sret dereferenceable(184) %_2, %"std::ffi::os_str::OsStr"* noalias nonnull readonly align 1 %_4.0, i64 %_4.1)
          to label %bb4 unwind label %cleanup

bb3:                                              ; preds = %cleanup
  br label %bb1

bb4:                                              ; preds = %bb2
  %13 = bitcast %"std::process::Command"* %0 to %"std::sys::unix::process::process_common::Command"*
  %14 = bitcast %"std::sys::unix::process::process_common::Command"* %13 to i8*
  %15 = bitcast %"std::sys::unix::process::process_common::Command"* %_2 to i8*
  call void @llvm.memcpy.p0i8.p0i8.i64(i8* align 8 %14, i8* align 8 %15, i64 184, i1 false)
  br label %bb5

bb5:                                              ; preds = %bb4
  ret void

cleanup:                                          ; preds = %bb2, %start
  %16 = landingpad { i8*, i32 }
          cleanup
  %17 = extractvalue { i8*, i32 } %16, 0
  %18 = extractvalue { i8*, i32 } %16, 1
  %19 = getelementptr inbounds { i8*, i32 }, { i8*, i32 }* %3, i32 0, i32 0
  store i8* %17, i8** %19, align 8
  %20 = getelementptr inbounds { i8*, i32 }, { i8*, i32 }* %3, i32 0, i32 1
  store i32 %18, i32* %20, align 8
  br label %bb3
}

; <&T as core::fmt::Debug>::fmt
; Function Attrs: uwtable
define internal zeroext i1 @"_ZN42_$LT$$RF$T$u20$as$u20$core..fmt..Debug$GT$3fmt17hf6ea2ec5b09066a4E"(i64** noalias readonly align 8 dereferenceable(8) %self, %"core::fmt::Formatter"* align 8 dereferenceable(64) %f) unnamed_addr #1 {
start:
  %_4 = load i64*, i64** %self, align 8, !nonnull !3
; call core::fmt::num::<impl core::fmt::Debug for usize>::fmt
  %0 = call zeroext i1 @"_ZN4core3fmt3num52_$LT$impl$u20$core..fmt..Debug$u20$for$u20$usize$GT$3fmt17hfe52ae9f998fe7a5E"(i64* noalias readonly align 8 dereferenceable(8) %_4, %"core::fmt::Formatter"* align 8 dereferenceable(64) %f)
  br label %bb1

bb1:                                              ; preds = %start
  ret i1 %0
}

; <&T as core::fmt::Display>::fmt
; Function Attrs: uwtable
define internal zeroext i1 @"_ZN44_$LT$$RF$T$u20$as$u20$core..fmt..Display$GT$3fmt17hb1a335e550bc1b56E"({ [0 x i8]*, i64 }* noalias readonly align 8 dereferenceable(16) %self, %"core::fmt::Formatter"* align 8 dereferenceable(64) %f) unnamed_addr #1 {
start:
  %0 = getelementptr inbounds { [0 x i8]*, i64 }, { [0 x i8]*, i64 }* %self, i32 0, i32 0
  %_4.0 = load [0 x i8]*, [0 x i8]** %0, align 8, !nonnull !3
  %1 = getelementptr inbounds { [0 x i8]*, i64 }, { [0 x i8]*, i64 }* %self, i32 0, i32 1
  %_4.1 = load i64, i64* %1, align 8
; call <str as core::fmt::Display>::fmt
  %2 = call zeroext i1 @"_ZN42_$LT$str$u20$as$u20$core..fmt..Display$GT$3fmt17h9d76a44539ebe2eaE"([0 x i8]* noalias nonnull readonly align 1 %_4.0, i64 %_4.1, %"core::fmt::Formatter"* align 8 dereferenceable(64) %f)
  br label %bb1

bb1:                                              ; preds = %start
  ret i1 %2
}

; core::intrinsics::copy_nonoverlapping
; Function Attrs: inlinehint uwtable
define internal void @_ZN4core10intrinsics19copy_nonoverlapping17h1af300b12795b0bdE(%"std::ffi::os_str::OsString"* %src, %"std::ffi::os_str::OsString"* %dst, i64 %count) unnamed_addr #0 {
start:
  %0 = mul i64 24, %count
  %1 = bitcast %"std::ffi::os_str::OsString"* %dst to i8*
  %2 = bitcast %"std::ffi::os_str::OsString"* %src to i8*
  call void @llvm.memcpy.p0i8.p0i8.i64(i8* align 8 %1, i8* align 8 %2, i64 %0, i1 false)
  br label %bb1

bb1:                                              ; preds = %start
  ret void
}

; core::intrinsics::copy_nonoverlapping
; Function Attrs: inlinehint uwtable
define internal void @_ZN4core10intrinsics19copy_nonoverlapping17h1b47ee2263fcb963E(%"alloc::collections::btree::map::BTreeMap<std::ffi::os_str::OsString, core::option::Option<std::ffi::os_str::OsString>>"* %src, %"alloc::collections::btree::map::BTreeMap<std::ffi::os_str::OsString, core::option::Option<std::ffi::os_str::OsString>>"* %dst, i64 %count) unnamed_addr #0 {
start:
  %0 = mul i64 24, %count
  %1 = bitcast %"alloc::collections::btree::map::BTreeMap<std::ffi::os_str::OsString, core::option::Option<std::ffi::os_str::OsString>>"* %dst to i8*
  %2 = bitcast %"alloc::collections::btree::map::BTreeMap<std::ffi::os_str::OsString, core::option::Option<std::ffi::os_str::OsString>>"* %src to i8*
  call void @llvm.memcpy.p0i8.p0i8.i64(i8* align 8 %1, i8* align 8 %2, i64 %0, i1 false)
  br label %bb1

bb1:                                              ; preds = %start
  ret void
}

; core::intrinsics::copy_nonoverlapping
; Function Attrs: inlinehint uwtable
define internal void @_ZN4core10intrinsics19copy_nonoverlapping17h9aa6770e09347c35E(%"alloc::collections::btree::node::NodeRef<alloc::collections::btree::node::marker::Immut, std::ffi::os_str::OsString, core::option::Option<std::ffi::os_str::OsString>, alloc::collections::btree::node::marker::Leaf>"* %src, %"alloc::collections::btree::node::NodeRef<alloc::collections::btree::node::marker::Immut, std::ffi::os_str::OsString, core::option::Option<std::ffi::os_str::OsString>, alloc::collections::btree::node::marker::Leaf>"* %dst, i64 %count) unnamed_addr #0 {
start:
  %0 = mul i64 24, %count
  %1 = bitcast %"alloc::collections::btree::node::NodeRef<alloc::collections::btree::node::marker::Immut, std::ffi::os_str::OsString, core::option::Option<std::ffi::os_str::OsString>, alloc::collections::btree::node::marker::Leaf>"* %dst to i8*
  %2 = bitcast %"alloc::collections::btree::node::NodeRef<alloc::collections::btree::node::marker::Immut, std::ffi::os_str::OsString, core::option::Option<std::ffi::os_str::OsString>, alloc::collections::btree::node::marker::Leaf>"* %src to i8*
  call void @llvm.memcpy.p0i8.p0i8.i64(i8* align 8 %1, i8* align 8 %2, i64 %0, i1 false)
  br label %bb1

bb1:                                              ; preds = %start
  ret void
}

; core::intrinsics::copy_nonoverlapping
; Function Attrs: inlinehint uwtable
define internal void @_ZN4core10intrinsics19copy_nonoverlapping17he1da1a29aebad598E(%"alloc::collections::btree::node::NodeRef<alloc::collections::btree::node::marker::Immut, std::ffi::os_str::OsString, core::option::Option<std::ffi::os_str::OsString>, alloc::collections::btree::node::marker::Internal>"* %src, %"alloc::collections::btree::node::NodeRef<alloc::collections::btree::node::marker::Immut, std::ffi::os_str::OsString, core::option::Option<std::ffi::os_str::OsString>, alloc::collections::btree::node::marker::Internal>"* %dst, i64 %count) unnamed_addr #0 {
start:
  %0 = mul i64 24, %count
  %1 = bitcast %"alloc::collections::btree::node::NodeRef<alloc::collections::btree::node::marker::Immut, std::ffi::os_str::OsString, core::option::Option<std::ffi::os_str::OsString>, alloc::collections::btree::node::marker::Internal>"* %dst to i8*
  %2 = bitcast %"alloc::collections::btree::node::NodeRef<alloc::collections::btree::node::marker::Immut, std::ffi::os_str::OsString, core::option::Option<std::ffi::os_str::OsString>, alloc::collections::btree::node::marker::Internal>"* %src to i8*
  call void @llvm.memcpy.p0i8.p0i8.i64(i8* align 8 %1, i8* align 8 %2, i64 %0, i1 false)
  br label %bb1

bb1:                                              ; preds = %start
  ret void
}

; core::intrinsics::copy_nonoverlapping
; Function Attrs: inlinehint uwtable
define internal void @_ZN4core10intrinsics19copy_nonoverlapping17hf72b950e21d3a9faE(%"alloc::collections::btree::node::Handle<alloc::collections::btree::node::NodeRef<alloc::collections::btree::node::marker::Owned, std::ffi::os_str::OsString, core::option::Option<std::ffi::os_str::OsString>, alloc::collections::btree::node::marker::Leaf>, alloc::collections::btree::node::marker::Edge>"* %src, %"alloc::collections::btree::node::Handle<alloc::collections::btree::node::NodeRef<alloc::collections::btree::node::marker::Owned, std::ffi::os_str::OsString, core::option::Option<std::ffi::os_str::OsString>, alloc::collections::btree::node::marker::Leaf>, alloc::collections::btree::node::marker::Edge>"* %dst, i64 %count) unnamed_addr #0 {
start:
  %0 = mul i64 32, %count
  %1 = bitcast %"alloc::collections::btree::node::Handle<alloc::collections::btree::node::NodeRef<alloc::collections::btree::node::marker::Owned, std::ffi::os_str::OsString, core::option::Option<std::ffi::os_str::OsString>, alloc::collections::btree::node::marker::Leaf>, alloc::collections::btree::node::marker::Edge>"* %dst to i8*
  %2 = bitcast %"alloc::collections::btree::node::Handle<alloc::collections::btree::node::NodeRef<alloc::collections::btree::node::marker::Owned, std::ffi::os_str::OsString, core::option::Option<std::ffi::os_str::OsString>, alloc::collections::btree::node::marker::Leaf>, alloc::collections::btree::node::marker::Edge>"* %src to i8*
  call void @llvm.memcpy.p0i8.p0i8.i64(i8* align 8 %1, i8* align 8 %2, i64 %0, i1 false)
  br label %bb1

bb1:                                              ; preds = %start
  ret void
}

; core::intrinsics::copy_nonoverlapping
; Function Attrs: inlinehint uwtable
define internal void @_ZN4core10intrinsics19copy_nonoverlapping17hf7687fd8ecf51e5bE(i8* %src, i8* %dst, i64 %count) unnamed_addr #0 {
start:
  %0 = mul i64 1, %count
  call void @llvm.memcpy.p0i8.p0i8.i64(i8* align 1 %dst, i8* align 1 %src, i64 %0, i1 false)
  br label %bb1

bb1:                                              ; preds = %start
  ret void
}

; core::intrinsics::copy_nonoverlapping
; Function Attrs: inlinehint uwtable
define internal void @_ZN4core10intrinsics19copy_nonoverlapping17hf9bbb3d7609ad57cE({ i64*, i64 }* %src, { i64*, i64 }* %dst, i64 %count) unnamed_addr #0 {
start:
  %0 = mul i64 16, %count
  %1 = bitcast { i64*, i64 }* %dst to i8*
  %2 = bitcast { i64*, i64 }* %src to i8*
  call void @llvm.memcpy.p0i8.p0i8.i64(i8* align 8 %1, i8* align 8 %2, i64 %0, i1 false)
  br label %bb1

bb1:                                              ; preds = %start
  ret void
}

; core::intrinsics::copy_nonoverlapping
; Function Attrs: inlinehint uwtable
define internal void @_ZN4core10intrinsics19copy_nonoverlapping17hfc70056fa89fd3d4E(%"core::option::Option<std::ffi::os_str::OsString>"* %src, %"core::option::Option<std::ffi::os_str::OsString>"* %dst, i64 %count) unnamed_addr #0 {
start:
  %0 = mul i64 24, %count
  %1 = bitcast %"core::option::Option<std::ffi::os_str::OsString>"* %dst to i8*
  %2 = bitcast %"core::option::Option<std::ffi::os_str::OsString>"* %src to i8*
  call void @llvm.memcpy.p0i8.p0i8.i64(i8* align 8 %1, i8* align 8 %2, i64 %0, i1 false)
  br label %bb1

bb1:                                              ; preds = %start
  ret void
}

; core::any::TypeId::of
; Function Attrs: uwtable
define internal i64 @_ZN4core3any6TypeId2of17hdc92dbf95789a1b2E() unnamed_addr #1 {
start:
  %0 = alloca i64, align 8
  %1 = alloca i64, align 8
  store i64 7752219279289630673, i64* %0, align 8
  %_1 = load i64, i64* %0, align 8
  br label %bb1

bb1:                                              ; preds = %start
  store i64 %_1, i64* %1, align 8
  %2 = load i64, i64* %1, align 8
  ret i64 %2
}

; core::cmp::Ord::max
; Function Attrs: inlinehint uwtable
define internal i64 @_ZN4core3cmp3Ord3max17h2cfb34a815d99f59E(i64 %self, i64 %other) unnamed_addr #0 {
start:
; call core::cmp::max_by
  %0 = call i64 @_ZN4core3cmp6max_by17h9b9401e9a27041a3E(i64 %self, i64 %other)
  br label %bb1

bb1:                                              ; preds = %start
  ret i64 %0
}

; core::cmp::max
; Function Attrs: inlinehint uwtable
define internal i64 @_ZN4core3cmp3max17h3dad8e3c925383f9E(i64 %v1, i64 %v2) unnamed_addr #0 {
start:
; call core::cmp::Ord::max
  %0 = call i64 @_ZN4core3cmp3Ord3max17h2cfb34a815d99f59E(i64 %v1, i64 %v2)
  br label %bb1

bb1:                                              ; preds = %start
  ret i64 %0
}

; core::cmp::impls::<impl core::cmp::Ord for usize>::cmp
; Function Attrs: inlinehint uwtable
define internal i8 @"_ZN4core3cmp5impls50_$LT$impl$u20$core..cmp..Ord$u20$for$u20$usize$GT$3cmp17hee036a432df47818E"(i64* noalias readonly align 8 dereferenceable(8) %self, i64* noalias readonly align 8 dereferenceable(8) %other) unnamed_addr #0 {
start:
  %0 = alloca i8, align 1
  %_4 = load i64, i64* %self, align 8
  %_5 = load i64, i64* %other, align 8
  %_3 = icmp ult i64 %_4, %_5
  br i1 %_3, label %bb2, label %bb1

bb1:                                              ; preds = %start
  %_7 = load i64, i64* %self, align 8
  %_8 = load i64, i64* %other, align 8
  %_6 = icmp eq i64 %_7, %_8
  br i1 %_6, label %bb4, label %bb3

bb2:                                              ; preds = %start
  store i8 -1, i8* %0, align 1
  br label %bb6

bb3:                                              ; preds = %bb1
  store i8 1, i8* %0, align 1
  br label %bb5

bb4:                                              ; preds = %bb1
  store i8 0, i8* %0, align 1
  br label %bb5

bb5:                                              ; preds = %bb3, %bb4
  br label %bb6

bb6:                                              ; preds = %bb5, %bb2
  %1 = load i8, i8* %0, align 1, !range !12
  ret i8 %1
}

; core::cmp::max_by
; Function Attrs: inlinehint uwtable
define internal i64 @_ZN4core3cmp6max_by17h9b9401e9a27041a3E(i64, i64) unnamed_addr #0 personality i32 (i32, i32, i64, %"unwind::libunwind::_Unwind_Exception"*, %"unwind::libunwind::_Unwind_Context"*)* @rust_eh_personality {
start:
  %2 = alloca { i8*, i32 }, align 8
  %_13 = alloca i8, align 1
  %_12 = alloca i8, align 1
  %_6 = alloca { i64*, i64* }, align 8
  %_4 = alloca i8, align 1
  %3 = alloca i64, align 8
  %v2 = alloca i64, align 8
  %v1 = alloca i64, align 8
  store i64 %0, i64* %v1, align 8
  store i64 %1, i64* %v2, align 8
  store i8 0, i8* %_12, align 1
  store i8 0, i8* %_13, align 1
  store i8 1, i8* %_12, align 1
  store i8 1, i8* %_13, align 1
  %4 = bitcast { i64*, i64* }* %_6 to i64**
  store i64* %v1, i64** %4, align 8
  %5 = getelementptr inbounds { i64*, i64* }, { i64*, i64* }* %_6, i32 0, i32 1
  store i64* %v2, i64** %5, align 8
  %6 = getelementptr inbounds { i64*, i64* }, { i64*, i64* }* %_6, i32 0, i32 0
  %7 = load i64*, i64** %6, align 8, !nonnull !3
  %8 = getelementptr inbounds { i64*, i64* }, { i64*, i64* }* %_6, i32 0, i32 1
  %9 = load i64*, i64** %8, align 8, !nonnull !3
; invoke core::ops::function::FnOnce::call_once
  %10 = invoke i8 @_ZN4core3ops8function6FnOnce9call_once17hb49bc14a2b341892E(i64* noalias readonly align 8 dereferenceable(8) %7, i64* noalias readonly align 8 dereferenceable(8) %9)
          to label %bb2 unwind label %cleanup, !range !12

bb1:                                              ; preds = %bb11, %bb3
  %11 = bitcast { i8*, i32 }* %2 to i8**
  %12 = load i8*, i8** %11, align 8
  %13 = getelementptr inbounds { i8*, i32 }, { i8*, i32 }* %2, i32 0, i32 1
  %14 = load i32, i32* %13, align 8
  %15 = insertvalue { i8*, i32 } undef, i8* %12, 0
  %16 = insertvalue { i8*, i32 } %15, i32 %14, 1
  resume { i8*, i32 } %16

bb2:                                              ; preds = %start
  store i8 %10, i8* %_4, align 1
  %17 = load i8, i8* %_4, align 1, !range !12
  %_11 = sext i8 %17 to i64
  switch i64 %_11, label %bb6 [
    i64 -1, label %bb7
    i64 0, label %bb7
    i64 1, label %bb5
  ]

bb3:                                              ; preds = %bb4
  %18 = load i8, i8* %_12, align 1, !range !2
  %19 = trunc i8 %18 to i1
  br i1 %19, label %bb11, label %bb1

bb4:                                              ; preds = %cleanup
  store i8 0, i8* %_13, align 1
  br label %bb3

bb5:                                              ; preds = %bb2
  store i8 0, i8* %_12, align 1
  %20 = load i64, i64* %v1, align 8
  store i64 %20, i64* %3, align 8
  br label %bb8

bb6:                                              ; preds = %bb2
  unreachable

bb7:                                              ; preds = %bb2, %bb2
  store i8 0, i8* %_13, align 1
  %21 = load i64, i64* %v2, align 8
  store i64 %21, i64* %3, align 8
  br label %bb8

bb8:                                              ; preds = %bb7, %bb5
  %22 = load i8, i8* %_13, align 1, !range !2
  %23 = trunc i8 %22 to i1
  br i1 %23, label %bb12, label %bb9

bb9:                                              ; preds = %bb12, %bb8
  %24 = load i8, i8* %_12, align 1, !range !2
  %25 = trunc i8 %24 to i1
  br i1 %25, label %bb13, label %bb10

bb10:                                             ; preds = %bb13, %bb9
  %26 = load i64, i64* %3, align 8
  ret i64 %26

bb11:                                             ; preds = %bb3
  store i8 0, i8* %_12, align 1
  br label %bb1

bb12:                                             ; preds = %bb8
  store i8 0, i8* %_13, align 1
  br label %bb9

bb13:                                             ; preds = %bb9
  store i8 0, i8* %_12, align 1
  br label %bb10

cleanup:                                          ; preds = %start
  %27 = landingpad { i8*, i32 }
          cleanup
  %28 = extractvalue { i8*, i32 } %27, 0
  %29 = extractvalue { i8*, i32 } %27, 1
  %30 = getelementptr inbounds { i8*, i32 }, { i8*, i32 }* %2, i32 0, i32 0
  store i8* %28, i8** %30, align 8
  %31 = getelementptr inbounds { i8*, i32 }, { i8*, i32 }* %2, i32 0, i32 1
  store i32 %29, i32* %31, align 8
  br label %bb4
}

; core::fmt::ArgumentV1::new
; Function Attrs: uwtable
define internal { i8*, i8* } @_ZN4core3fmt10ArgumentV13new17h287cb38ad42e33afE({ [0 x i8]*, i64 }* noalias readonly align 8 dereferenceable(16) %x, i1 ({ [0 x i8]*, i64 }*, %"core::fmt::Formatter"*)* nonnull %f) unnamed_addr #1 {
start:
  %0 = alloca %"core::fmt::Void"*, align 8
  %1 = alloca i1 (%"core::fmt::Void"*, %"core::fmt::Formatter"*)*, align 8
  %2 = alloca { i8*, i8* }, align 8
  %3 = bitcast i1 (%"core::fmt::Void"*, %"core::fmt::Formatter"*)** %1 to i1 ({ [0 x i8]*, i64 }*, %"core::fmt::Formatter"*)**
  store i1 ({ [0 x i8]*, i64 }*, %"core::fmt::Formatter"*)* %f, i1 ({ [0 x i8]*, i64 }*, %"core::fmt::Formatter"*)** %3, align 8
  %_3 = load i1 (%"core::fmt::Void"*, %"core::fmt::Formatter"*)*, i1 (%"core::fmt::Void"*, %"core::fmt::Formatter"*)** %1, align 8, !nonnull !3
  br label %bb1

bb1:                                              ; preds = %start
  %4 = bitcast %"core::fmt::Void"** %0 to { [0 x i8]*, i64 }**
  store { [0 x i8]*, i64 }* %x, { [0 x i8]*, i64 }** %4, align 8
  %_5 = load %"core::fmt::Void"*, %"core::fmt::Void"** %0, align 8, !nonnull !3
  br label %bb2

bb2:                                              ; preds = %bb1
  %5 = bitcast { i8*, i8* }* %2 to %"core::fmt::Void"**
  store %"core::fmt::Void"* %_5, %"core::fmt::Void"** %5, align 8
  %6 = getelementptr inbounds { i8*, i8* }, { i8*, i8* }* %2, i32 0, i32 1
  %7 = bitcast i8** %6 to i1 (%"core::fmt::Void"*, %"core::fmt::Formatter"*)**
  store i1 (%"core::fmt::Void"*, %"core::fmt::Formatter"*)* %_3, i1 (%"core::fmt::Void"*, %"core::fmt::Formatter"*)** %7, align 8
  %8 = getelementptr inbounds { i8*, i8* }, { i8*, i8* }* %2, i32 0, i32 0
  %9 = load i8*, i8** %8, align 8, !nonnull !3
  %10 = getelementptr inbounds { i8*, i8* }, { i8*, i8* }* %2, i32 0, i32 1
  %11 = load i8*, i8** %10, align 8, !nonnull !3
  %12 = insertvalue { i8*, i8* } undef, i8* %9, 0
  %13 = insertvalue { i8*, i8* } %12, i8* %11, 1
  ret { i8*, i8* } %13
}

; core::fmt::ArgumentV1::new
; Function Attrs: uwtable
define internal { i8*, i8* } @_ZN4core3fmt10ArgumentV13new17h5183e7f94417820aE(%"core::fmt::Arguments"* noalias readonly align 8 dereferenceable(48) %x, i1 (%"core::fmt::Arguments"*, %"core::fmt::Formatter"*)* nonnull %f) unnamed_addr #1 {
start:
  %0 = alloca %"core::fmt::Void"*, align 8
  %1 = alloca i1 (%"core::fmt::Void"*, %"core::fmt::Formatter"*)*, align 8
  %2 = alloca { i8*, i8* }, align 8
  %3 = bitcast i1 (%"core::fmt::Void"*, %"core::fmt::Formatter"*)** %1 to i1 (%"core::fmt::Arguments"*, %"core::fmt::Formatter"*)**
  store i1 (%"core::fmt::Arguments"*, %"core::fmt::Formatter"*)* %f, i1 (%"core::fmt::Arguments"*, %"core::fmt::Formatter"*)** %3, align 8
  %_3 = load i1 (%"core::fmt::Void"*, %"core::fmt::Formatter"*)*, i1 (%"core::fmt::Void"*, %"core::fmt::Formatter"*)** %1, align 8, !nonnull !3
  br label %bb1

bb1:                                              ; preds = %start
  %4 = bitcast %"core::fmt::Void"** %0 to %"core::fmt::Arguments"**
  store %"core::fmt::Arguments"* %x, %"core::fmt::Arguments"** %4, align 8
  %_5 = load %"core::fmt::Void"*, %"core::fmt::Void"** %0, align 8, !nonnull !3
  br label %bb2

bb2:                                              ; preds = %bb1
  %5 = bitcast { i8*, i8* }* %2 to %"core::fmt::Void"**
  store %"core::fmt::Void"* %_5, %"core::fmt::Void"** %5, align 8
  %6 = getelementptr inbounds { i8*, i8* }, { i8*, i8* }* %2, i32 0, i32 1
  %7 = bitcast i8** %6 to i1 (%"core::fmt::Void"*, %"core::fmt::Formatter"*)**
  store i1 (%"core::fmt::Void"*, %"core::fmt::Formatter"*)* %_3, i1 (%"core::fmt::Void"*, %"core::fmt::Formatter"*)** %7, align 8
  %8 = getelementptr inbounds { i8*, i8* }, { i8*, i8* }* %2, i32 0, i32 0
  %9 = load i8*, i8** %8, align 8, !nonnull !3
  %10 = getelementptr inbounds { i8*, i8* }, { i8*, i8* }* %2, i32 0, i32 1
  %11 = load i8*, i8** %10, align 8, !nonnull !3
  %12 = insertvalue { i8*, i8* } undef, i8* %9, 0
  %13 = insertvalue { i8*, i8* } %12, i8* %11, 1
  ret { i8*, i8* } %13
}

; core::fmt::ArgumentV1::new
; Function Attrs: uwtable
define internal { i8*, i8* } @_ZN4core3fmt10ArgumentV13new17h85a61dd71cf60491E(%"alloc::string::String"* noalias readonly align 8 dereferenceable(24) %x, i1 (%"alloc::string::String"*, %"core::fmt::Formatter"*)* nonnull %f) unnamed_addr #1 {
start:
  %0 = alloca %"core::fmt::Void"*, align 8
  %1 = alloca i1 (%"core::fmt::Void"*, %"core::fmt::Formatter"*)*, align 8
  %2 = alloca { i8*, i8* }, align 8
  %3 = bitcast i1 (%"core::fmt::Void"*, %"core::fmt::Formatter"*)** %1 to i1 (%"alloc::string::String"*, %"core::fmt::Formatter"*)**
  store i1 (%"alloc::string::String"*, %"core::fmt::Formatter"*)* %f, i1 (%"alloc::string::String"*, %"core::fmt::Formatter"*)** %3, align 8
  %_3 = load i1 (%"core::fmt::Void"*, %"core::fmt::Formatter"*)*, i1 (%"core::fmt::Void"*, %"core::fmt::Formatter"*)** %1, align 8, !nonnull !3
  br label %bb1

bb1:                                              ; preds = %start
  %4 = bitcast %"core::fmt::Void"** %0 to %"alloc::string::String"**
  store %"alloc::string::String"* %x, %"alloc::string::String"** %4, align 8
  %_5 = load %"core::fmt::Void"*, %"core::fmt::Void"** %0, align 8, !nonnull !3
  br label %bb2

bb2:                                              ; preds = %bb1
  %5 = bitcast { i8*, i8* }* %2 to %"core::fmt::Void"**
  store %"core::fmt::Void"* %_5, %"core::fmt::Void"** %5, align 8
  %6 = getelementptr inbounds { i8*, i8* }, { i8*, i8* }* %2, i32 0, i32 1
  %7 = bitcast i8** %6 to i1 (%"core::fmt::Void"*, %"core::fmt::Formatter"*)**
  store i1 (%"core::fmt::Void"*, %"core::fmt::Formatter"*)* %_3, i1 (%"core::fmt::Void"*, %"core::fmt::Formatter"*)** %7, align 8
  %8 = getelementptr inbounds { i8*, i8* }, { i8*, i8* }* %2, i32 0, i32 0
  %9 = load i8*, i8** %8, align 8, !nonnull !3
  %10 = getelementptr inbounds { i8*, i8* }, { i8*, i8* }* %2, i32 0, i32 1
  %11 = load i8*, i8** %10, align 8, !nonnull !3
  %12 = insertvalue { i8*, i8* } undef, i8* %9, 0
  %13 = insertvalue { i8*, i8* } %12, i8* %11, 1
  ret { i8*, i8* } %13
}

; core::fmt::ArgumentV1::new
; Function Attrs: uwtable
define internal { i8*, i8* } @_ZN4core3fmt10ArgumentV13new17hcf57fe4a1214c37aE(i64** noalias readonly align 8 dereferenceable(8) %x, i1 (i64**, %"core::fmt::Formatter"*)* nonnull %f) unnamed_addr #1 {
start:
  %0 = alloca %"core::fmt::Void"*, align 8
  %1 = alloca i1 (%"core::fmt::Void"*, %"core::fmt::Formatter"*)*, align 8
  %2 = alloca { i8*, i8* }, align 8
  %3 = bitcast i1 (%"core::fmt::Void"*, %"core::fmt::Formatter"*)** %1 to i1 (i64**, %"core::fmt::Formatter"*)**
  store i1 (i64**, %"core::fmt::Formatter"*)* %f, i1 (i64**, %"core::fmt::Formatter"*)** %3, align 8
  %_3 = load i1 (%"core::fmt::Void"*, %"core::fmt::Formatter"*)*, i1 (%"core::fmt::Void"*, %"core::fmt::Formatter"*)** %1, align 8, !nonnull !3
  br label %bb1

bb1:                                              ; preds = %start
  %4 = bitcast %"core::fmt::Void"** %0 to i64***
  store i64** %x, i64*** %4, align 8
  %_5 = load %"core::fmt::Void"*, %"core::fmt::Void"** %0, align 8, !nonnull !3
  br label %bb2

bb2:                                              ; preds = %bb1
  %5 = bitcast { i8*, i8* }* %2 to %"core::fmt::Void"**
  store %"core::fmt::Void"* %_5, %"core::fmt::Void"** %5, align 8
  %6 = getelementptr inbounds { i8*, i8* }, { i8*, i8* }* %2, i32 0, i32 1
  %7 = bitcast i8** %6 to i1 (%"core::fmt::Void"*, %"core::fmt::Formatter"*)**
  store i1 (%"core::fmt::Void"*, %"core::fmt::Formatter"*)* %_3, i1 (%"core::fmt::Void"*, %"core::fmt::Formatter"*)** %7, align 8
  %8 = getelementptr inbounds { i8*, i8* }, { i8*, i8* }* %2, i32 0, i32 0
  %9 = load i8*, i8** %8, align 8, !nonnull !3
  %10 = getelementptr inbounds { i8*, i8* }, { i8*, i8* }* %2, i32 0, i32 1
  %11 = load i8*, i8** %10, align 8, !nonnull !3
  %12 = insertvalue { i8*, i8* } undef, i8* %9, 0
  %13 = insertvalue { i8*, i8* } %12, i8* %11, 1
  ret { i8*, i8* } %13
}

; core::fmt::num::<impl core::fmt::Debug for usize>::fmt
; Function Attrs: inlinehint uwtable
define internal zeroext i1 @"_ZN4core3fmt3num52_$LT$impl$u20$core..fmt..Debug$u20$for$u20$usize$GT$3fmt17hfe52ae9f998fe7a5E"(i64* noalias readonly align 8 dereferenceable(8) %self, %"core::fmt::Formatter"* align 8 dereferenceable(64) %f) unnamed_addr #0 {
start:
  %0 = alloca i8, align 1
; call core::fmt::Formatter::debug_lower_hex
  %_3 = call zeroext i1 @_ZN4core3fmt9Formatter15debug_lower_hex17hf8d5b9ef39358678E(%"core::fmt::Formatter"* noalias readonly align 8 dereferenceable(64) %f)
  br label %bb1

bb1:                                              ; preds = %start
  br i1 %_3, label %bb3, label %bb2

bb2:                                              ; preds = %bb1
; call core::fmt::Formatter::debug_upper_hex
  %_7 = call zeroext i1 @_ZN4core3fmt9Formatter15debug_upper_hex17hd73b18dc699adeddE(%"core::fmt::Formatter"* noalias readonly align 8 dereferenceable(64) %f)
  br label %bb5

bb3:                                              ; preds = %bb1
; call core::fmt::num::<impl core::fmt::LowerHex for usize>::fmt
  %1 = call zeroext i1 @"_ZN4core3fmt3num55_$LT$impl$u20$core..fmt..LowerHex$u20$for$u20$usize$GT$3fmt17h0bc53441322c583eE"(i64* noalias readonly align 8 dereferenceable(8) %self, %"core::fmt::Formatter"* align 8 dereferenceable(64) %f)
  %2 = zext i1 %1 to i8
  store i8 %2, i8* %0, align 1
  br label %bb4

bb4:                                              ; preds = %bb3
  br label %bb11

bb5:                                              ; preds = %bb2
  br i1 %_7, label %bb7, label %bb6

bb6:                                              ; preds = %bb5
; call core::fmt::num::imp::<impl core::fmt::Display for usize>::fmt
  %3 = call zeroext i1 @"_ZN4core3fmt3num3imp54_$LT$impl$u20$core..fmt..Display$u20$for$u20$usize$GT$3fmt17h350356f9feab29dfE"(i64* noalias readonly align 8 dereferenceable(8) %self, %"core::fmt::Formatter"* align 8 dereferenceable(64) %f)
  %4 = zext i1 %3 to i8
  store i8 %4, i8* %0, align 1
  br label %bb9

bb7:                                              ; preds = %bb5
; call core::fmt::num::<impl core::fmt::UpperHex for usize>::fmt
  %5 = call zeroext i1 @"_ZN4core3fmt3num55_$LT$impl$u20$core..fmt..UpperHex$u20$for$u20$usize$GT$3fmt17hbbe4f6cf2310116aE"(i64* noalias readonly align 8 dereferenceable(8) %self, %"core::fmt::Formatter"* align 8 dereferenceable(64) %f)
  %6 = zext i1 %5 to i8
  store i8 %6, i8* %0, align 1
  br label %bb8

bb8:                                              ; preds = %bb7
  br label %bb10

bb9:                                              ; preds = %bb6
  br label %bb10

bb10:                                             ; preds = %bb9, %bb8
  br label %bb11

bb11:                                             ; preds = %bb10, %bb4
  %7 = load i8, i8* %0, align 1, !range !2
  %8 = trunc i8 %7 to i1
  ret i1 %8
}

; core::fmt::Arguments::new_v1
; Function Attrs: inlinehint uwtable
define internal void @_ZN4core3fmt9Arguments6new_v117hef5cd09e4e0144d1E(%"core::fmt::Arguments"* noalias nocapture sret dereferenceable(48), [0 x { [0 x i8]*, i64 }]* noalias nonnull readonly align 8 %pieces.0, i64 %pieces.1, [0 x { i8*, i8* }]* noalias nonnull readonly align 8 %args.0, i64 %args.1) unnamed_addr #0 {
start:
  %_4 = alloca { i64*, i64 }, align 8
  %1 = bitcast { i64*, i64 }* %_4 to {}**
  store {}* null, {}** %1, align 8
  %2 = bitcast %"core::fmt::Arguments"* %0 to { [0 x { [0 x i8]*, i64 }]*, i64 }*
  %3 = getelementptr inbounds { [0 x { [0 x i8]*, i64 }]*, i64 }, { [0 x { [0 x i8]*, i64 }]*, i64 }* %2, i32 0, i32 0
  store [0 x { [0 x i8]*, i64 }]* %pieces.0, [0 x { [0 x i8]*, i64 }]** %3, align 8
  %4 = getelementptr inbounds { [0 x { [0 x i8]*, i64 }]*, i64 }, { [0 x { [0 x i8]*, i64 }]*, i64 }* %2, i32 0, i32 1
  store i64 %pieces.1, i64* %4, align 8
  %5 = getelementptr inbounds %"core::fmt::Arguments", %"core::fmt::Arguments"* %0, i32 0, i32 3
  %6 = getelementptr inbounds { i64*, i64 }, { i64*, i64 }* %_4, i32 0, i32 0
  %7 = load i64*, i64** %6, align 8
  %8 = getelementptr inbounds { i64*, i64 }, { i64*, i64 }* %_4, i32 0, i32 1
  %9 = load i64, i64* %8, align 8
  %10 = getelementptr inbounds { i64*, i64 }, { i64*, i64 }* %5, i32 0, i32 0
  store i64* %7, i64** %10, align 8
  %11 = getelementptr inbounds { i64*, i64 }, { i64*, i64 }* %5, i32 0, i32 1
  store i64 %9, i64* %11, align 8
  %12 = getelementptr inbounds %"core::fmt::Arguments", %"core::fmt::Arguments"* %0, i32 0, i32 5
  %13 = getelementptr inbounds { [0 x { i8*, i8* }]*, i64 }, { [0 x { i8*, i8* }]*, i64 }* %12, i32 0, i32 0
  store [0 x { i8*, i8* }]* %args.0, [0 x { i8*, i8* }]** %13, align 8
  %14 = getelementptr inbounds { [0 x { i8*, i8* }]*, i64 }, { [0 x { i8*, i8* }]*, i64 }* %12, i32 0, i32 1
  store i64 %args.1, i64* %14, align 8
  ret void
}

; core::mem::drop
; Function Attrs: inlinehint uwtable
define internal void @_ZN4core3mem4drop17h45f0fc730b2c2712E(%"alloc::collections::btree::map::IntoIter<std::ffi::os_str::OsString, core::option::Option<std::ffi::os_str::OsString>>"* noalias nocapture dereferenceable(72) %_x) unnamed_addr #0 {
start:
; call core::ptr::drop_in_place
  call void @_ZN4core3ptr13drop_in_place17h6fd868a3ed678691E(%"alloc::collections::btree::map::IntoIter<std::ffi::os_str::OsString, core::option::Option<std::ffi::os_str::OsString>>"* %_x)
  br label %bb1

bb1:                                              ; preds = %start
  ret void
}

; core::mem::drop
; Function Attrs: inlinehint uwtable
define internal void @_ZN4core3mem4drop17h46ff924f344b32a4E({ [0 x i64], %"std::ffi::os_str::OsString", [0 x i64], %"core::option::Option<std::ffi::os_str::OsString>", [0 x i64] }* noalias nocapture dereferenceable(48) %_x) unnamed_addr #0 {
start:
; call core::ptr::drop_in_place
  call void @_ZN4core3ptr13drop_in_place17h0a56ca0e3a57c5beE({ [0 x i64], %"std::ffi::os_str::OsString", [0 x i64], %"core::option::Option<std::ffi::os_str::OsString>", [0 x i64] }* %_x)
  br label %bb1

bb1:                                              ; preds = %start
  ret void
}

; core::mem::forget
; Function Attrs: inlinehint uwtable
define internal void @_ZN4core3mem6forget17h36a3e896204f2500E(%"alloc::collections::btree::map::BTreeMap<std::ffi::os_str::OsString, core::option::Option<std::ffi::os_str::OsString>>"* noalias nocapture dereferenceable(24) %t) unnamed_addr #0 {
start:
  %_2.i = alloca %"alloc::collections::btree::map::BTreeMap<std::ffi::os_str::OsString, core::option::Option<std::ffi::os_str::OsString>>", align 8
  %_3 = alloca %"alloc::collections::btree::map::BTreeMap<std::ffi::os_str::OsString, core::option::Option<std::ffi::os_str::OsString>>", align 8
  %_2 = alloca %"core::mem::manually_drop::ManuallyDrop<alloc::collections::btree::map::BTreeMap<std::ffi::os_str::OsString, core::option::Option<std::ffi::os_str::OsString>>>", align 8
  %0 = bitcast %"alloc::collections::btree::map::BTreeMap<std::ffi::os_str::OsString, core::option::Option<std::ffi::os_str::OsString>>"* %_3 to i8*
  %1 = bitcast %"alloc::collections::btree::map::BTreeMap<std::ffi::os_str::OsString, core::option::Option<std::ffi::os_str::OsString>>"* %t to i8*
  call void @llvm.memcpy.p0i8.p0i8.i64(i8* align 8 %0, i8* align 8 %1, i64 24, i1 false)
  %2 = bitcast %"alloc::collections::btree::map::BTreeMap<std::ffi::os_str::OsString, core::option::Option<std::ffi::os_str::OsString>>"* %_2.i to i8*
  %3 = bitcast %"alloc::collections::btree::map::BTreeMap<std::ffi::os_str::OsString, core::option::Option<std::ffi::os_str::OsString>>"* %_3 to i8*
  call void @llvm.memcpy.p0i8.p0i8.i64(i8* align 8 %2, i8* align 8 %3, i64 24, i1 false), !noalias !13
  %4 = bitcast %"core::mem::manually_drop::ManuallyDrop<alloc::collections::btree::map::BTreeMap<std::ffi::os_str::OsString, core::option::Option<std::ffi::os_str::OsString>>>"* %_2 to %"alloc::collections::btree::map::BTreeMap<std::ffi::os_str::OsString, core::option::Option<std::ffi::os_str::OsString>>"*
  %5 = bitcast %"alloc::collections::btree::map::BTreeMap<std::ffi::os_str::OsString, core::option::Option<std::ffi::os_str::OsString>>"* %4 to i8*
  %6 = bitcast %"alloc::collections::btree::map::BTreeMap<std::ffi::os_str::OsString, core::option::Option<std::ffi::os_str::OsString>>"* %_2.i to i8*
  call void @llvm.memcpy.p0i8.p0i8.i64(i8* align 8 %5, i8* align 8 %6, i64 24, i1 false), !noalias !16
  br label %bb1

bb1:                                              ; preds = %start
  ret void
}

; core::num::NonZeroUsize::new_unchecked
; Function Attrs: inlinehint uwtable
define internal i64 @_ZN4core3num12NonZeroUsize13new_unchecked17h1432920e9d167b77E(i64 %n) unnamed_addr #0 {
start:
  %0 = alloca i64, align 8
  store i64 %n, i64* %0, align 8
  %1 = load i64, i64* %0, align 8, !range !18
  ret i64 %1
}

; core::num::NonZeroUsize::get
; Function Attrs: inlinehint uwtable
define internal i64 @_ZN4core3num12NonZeroUsize3get17h96501beb5ad57956E(i64 %self) unnamed_addr #0 {
start:
  ret i64 %self
}

; core::num::<impl usize>::count_ones
; Function Attrs: inlinehint uwtable
define internal i32 @"_ZN4core3num23_$LT$impl$u20$usize$GT$10count_ones17hd8a1ebeeab8d172aE"(i64 %self) unnamed_addr #0 {
start:
  %0 = alloca i64, align 8
  %1 = call i64 @llvm.ctpop.i64(i64 %self)
  store i64 %1, i64* %0, align 8
  %_2 = load i64, i64* %0, align 8
  br label %bb1

bb1:                                              ; preds = %start
  %2 = trunc i64 %_2 to i32
  ret i32 %2
}

; core::num::<impl usize>::checked_add
; Function Attrs: inlinehint uwtable
define internal { i64, i64 } @"_ZN4core3num23_$LT$impl$u20$usize$GT$11checked_add17h1a581362e7513c8cE"(i64 %self, i64 %rhs) unnamed_addr #0 {
start:
  %0 = alloca { i64, i64 }, align 8
; call core::num::<impl usize>::overflowing_add
  %1 = call { i64, i8 } @"_ZN4core3num23_$LT$impl$u20$usize$GT$15overflowing_add17hef32269bb18279baE"(i64 %self, i64 %rhs)
  %_5.0 = extractvalue { i64, i8 } %1, 0
  %2 = extractvalue { i64, i8 } %1, 1
  %_5.1 = trunc i8 %2 to i1
  br label %bb1

bb1:                                              ; preds = %start
  br i1 %_5.1, label %bb3, label %bb2

bb2:                                              ; preds = %bb1
  %3 = bitcast { i64, i64 }* %0 to %"core::option::Option<usize>::Some"*
  %4 = getelementptr inbounds %"core::option::Option<usize>::Some", %"core::option::Option<usize>::Some"* %3, i32 0, i32 1
  store i64 %_5.0, i64* %4, align 8
  %5 = bitcast { i64, i64 }* %0 to i64*
  store i64 1, i64* %5, align 8
  br label %bb4

bb3:                                              ; preds = %bb1
  %6 = bitcast { i64, i64 }* %0 to i64*
  store i64 0, i64* %6, align 8
  br label %bb4

bb4:                                              ; preds = %bb2, %bb3
  %7 = getelementptr inbounds { i64, i64 }, { i64, i64 }* %0, i32 0, i32 0
  %8 = load i64, i64* %7, align 8, !range !7
  %9 = getelementptr inbounds { i64, i64 }, { i64, i64 }* %0, i32 0, i32 1
  %10 = load i64, i64* %9, align 8
  %11 = insertvalue { i64, i64 } undef, i64 %8, 0
  %12 = insertvalue { i64, i64 } %11, i64 %10, 1
  ret { i64, i64 } %12
}

; core::num::<impl usize>::checked_mul
; Function Attrs: inlinehint uwtable
define internal { i64, i64 } @"_ZN4core3num23_$LT$impl$u20$usize$GT$11checked_mul17he8814a5dc0a13cf9E"(i64 %self, i64 %rhs) unnamed_addr #0 {
start:
  %0 = alloca { i64, i64 }, align 8
; call core::num::<impl usize>::overflowing_mul
  %1 = call { i64, i8 } @"_ZN4core3num23_$LT$impl$u20$usize$GT$15overflowing_mul17ha720363fae321c96E"(i64 %self, i64 %rhs)
  %_5.0 = extractvalue { i64, i8 } %1, 0
  %2 = extractvalue { i64, i8 } %1, 1
  %_5.1 = trunc i8 %2 to i1
  br label %bb1

bb1:                                              ; preds = %start
  br i1 %_5.1, label %bb3, label %bb2

bb2:                                              ; preds = %bb1
  %3 = bitcast { i64, i64 }* %0 to %"core::option::Option<usize>::Some"*
  %4 = getelementptr inbounds %"core::option::Option<usize>::Some", %"core::option::Option<usize>::Some"* %3, i32 0, i32 1
  store i64 %_5.0, i64* %4, align 8
  %5 = bitcast { i64, i64 }* %0 to i64*
  store i64 1, i64* %5, align 8
  br label %bb4

bb3:                                              ; preds = %bb1
  %6 = bitcast { i64, i64 }* %0 to i64*
  store i64 0, i64* %6, align 8
  br label %bb4

bb4:                                              ; preds = %bb2, %bb3
  %7 = getelementptr inbounds { i64, i64 }, { i64, i64 }* %0, i32 0, i32 0
  %8 = load i64, i64* %7, align 8, !range !7
  %9 = getelementptr inbounds { i64, i64 }, { i64, i64 }* %0, i32 0, i32 1
  %10 = load i64, i64* %9, align 8
  %11 = insertvalue { i64, i64 } undef, i64 %8, 0
  %12 = insertvalue { i64, i64 } %11, i64 %10, 1
  ret { i64, i64 } %12
}

; core::num::<impl usize>::wrapping_add
; Function Attrs: inlinehint uwtable
define internal i64 @"_ZN4core3num23_$LT$impl$u20$usize$GT$12wrapping_add17hc9922394e40054f6E"(i64 %self, i64 %rhs) unnamed_addr #0 {
start:
  %0 = alloca i64, align 8
  %1 = add i64 %self, %rhs
  store i64 %1, i64* %0, align 8
  %2 = load i64, i64* %0, align 8
  br label %bb1

bb1:                                              ; preds = %start
  ret i64 %2
}

; core::num::<impl usize>::wrapping_sub
; Function Attrs: inlinehint uwtable
define internal i64 @"_ZN4core3num23_$LT$impl$u20$usize$GT$12wrapping_sub17h527f9a3706f60564E"(i64 %self, i64 %rhs) unnamed_addr #0 {
start:
  %0 = alloca i64, align 8
  %1 = sub i64 %self, %rhs
  store i64 %1, i64* %0, align 8
  %2 = load i64, i64* %0, align 8
  br label %bb1

bb1:                                              ; preds = %start
  ret i64 %2
}

; core::num::<impl usize>::is_power_of_two
; Function Attrs: inlinehint uwtable
define internal zeroext i1 @"_ZN4core3num23_$LT$impl$u20$usize$GT$15is_power_of_two17ha05cbd1a6ff02624E"(i64 %self) unnamed_addr #0 {
start:
; call core::num::<impl usize>::count_ones
  %_2 = call i32 @"_ZN4core3num23_$LT$impl$u20$usize$GT$10count_ones17hd8a1ebeeab8d172aE"(i64 %self)
  br label %bb1

bb1:                                              ; preds = %start
  %0 = icmp eq i32 %_2, 1
  ret i1 %0
}

; core::num::<impl usize>::overflowing_add
; Function Attrs: inlinehint uwtable
define internal { i64, i8 } @"_ZN4core3num23_$LT$impl$u20$usize$GT$15overflowing_add17hef32269bb18279baE"(i64 %self, i64 %rhs) unnamed_addr #0 {
start:
  %0 = alloca { i64, i8 }, align 8
  %1 = alloca { i64, i8 }, align 8
  %2 = call { i64, i1 } @llvm.uadd.with.overflow.i64(i64 %self, i64 %rhs)
  %3 = extractvalue { i64, i1 } %2, 0
  %4 = extractvalue { i64, i1 } %2, 1
  %5 = zext i1 %4 to i8
  %6 = bitcast { i64, i8 }* %0 to i64*
  store i64 %3, i64* %6, align 8
  %7 = getelementptr inbounds { i64, i8 }, { i64, i8 }* %0, i32 0, i32 1
  store i8 %5, i8* %7, align 8
  %8 = getelementptr inbounds { i64, i8 }, { i64, i8 }* %0, i32 0, i32 0
  %_5.0 = load i64, i64* %8, align 8
  %9 = getelementptr inbounds { i64, i8 }, { i64, i8 }* %0, i32 0, i32 1
  %10 = load i8, i8* %9, align 8, !range !2
  %_5.1 = trunc i8 %10 to i1
  br label %bb1

bb1:                                              ; preds = %start
  %11 = bitcast { i64, i8 }* %1 to i64*
  store i64 %_5.0, i64* %11, align 8
  %12 = getelementptr inbounds { i64, i8 }, { i64, i8 }* %1, i32 0, i32 1
  %13 = zext i1 %_5.1 to i8
  store i8 %13, i8* %12, align 8
  %14 = getelementptr inbounds { i64, i8 }, { i64, i8 }* %1, i32 0, i32 0
  %15 = load i64, i64* %14, align 8
  %16 = getelementptr inbounds { i64, i8 }, { i64, i8 }* %1, i32 0, i32 1
  %17 = load i8, i8* %16, align 8, !range !2
  %18 = trunc i8 %17 to i1
  %19 = zext i1 %18 to i8
  %20 = insertvalue { i64, i8 } undef, i64 %15, 0
  %21 = insertvalue { i64, i8 } %20, i8 %19, 1
  ret { i64, i8 } %21
}

; core::num::<impl usize>::overflowing_mul
; Function Attrs: inlinehint uwtable
define internal { i64, i8 } @"_ZN4core3num23_$LT$impl$u20$usize$GT$15overflowing_mul17ha720363fae321c96E"(i64 %self, i64 %rhs) unnamed_addr #0 {
start:
  %0 = alloca { i64, i8 }, align 8
  %1 = alloca { i64, i8 }, align 8
  %2 = call { i64, i1 } @llvm.umul.with.overflow.i64(i64 %self, i64 %rhs)
  %3 = extractvalue { i64, i1 } %2, 0
  %4 = extractvalue { i64, i1 } %2, 1
  %5 = zext i1 %4 to i8
  %6 = bitcast { i64, i8 }* %0 to i64*
  store i64 %3, i64* %6, align 8
  %7 = getelementptr inbounds { i64, i8 }, { i64, i8 }* %0, i32 0, i32 1
  store i8 %5, i8* %7, align 8
  %8 = getelementptr inbounds { i64, i8 }, { i64, i8 }* %0, i32 0, i32 0
  %_5.0 = load i64, i64* %8, align 8
  %9 = getelementptr inbounds { i64, i8 }, { i64, i8 }* %0, i32 0, i32 1
  %10 = load i8, i8* %9, align 8, !range !2
  %_5.1 = trunc i8 %10 to i1
  br label %bb1

bb1:                                              ; preds = %start
  %11 = bitcast { i64, i8 }* %1 to i64*
  store i64 %_5.0, i64* %11, align 8
  %12 = getelementptr inbounds { i64, i8 }, { i64, i8 }* %1, i32 0, i32 1
  %13 = zext i1 %_5.1 to i8
  store i8 %13, i8* %12, align 8
  %14 = getelementptr inbounds { i64, i8 }, { i64, i8 }* %1, i32 0, i32 0
  %15 = load i64, i64* %14, align 8
  %16 = getelementptr inbounds { i64, i8 }, { i64, i8 }* %1, i32 0, i32 1
  %17 = load i8, i8* %16, align 8, !range !2
  %18 = trunc i8 %17 to i1
  %19 = zext i1 %18 to i8
  %20 = insertvalue { i64, i8 } undef, i64 %15, 0
  %21 = insertvalue { i64, i8 } %20, i8 %19, 1
  ret { i64, i8 } %21
}

; core::ops::function::FnMut::call_mut
; Function Attrs: uwtable
define internal void @_ZN4core3ops8function5FnMut8call_mut17h084b736c26f95b6cE({}* nonnull align 1 %_1, { [0 x i64], %"std::ffi::os_str::OsString", [0 x i64], %"core::option::Option<std::ffi::os_str::OsString>", [0 x i64] }* noalias nocapture dereferenceable(48)) unnamed_addr #1 {
start:
  %_2 = alloca { [0 x i64], { [0 x i64], %"std::ffi::os_str::OsString", [0 x i64], %"core::option::Option<std::ffi::os_str::OsString>", [0 x i64] }, [0 x i64] }, align 8
  %1 = bitcast { [0 x i64], { [0 x i64], %"std::ffi::os_str::OsString", [0 x i64], %"core::option::Option<std::ffi::os_str::OsString>", [0 x i64] }, [0 x i64] }* %_2 to { [0 x i64], %"std::ffi::os_str::OsString", [0 x i64], %"core::option::Option<std::ffi::os_str::OsString>", [0 x i64] }*
  %2 = bitcast { [0 x i64], %"std::ffi::os_str::OsString", [0 x i64], %"core::option::Option<std::ffi::os_str::OsString>", [0 x i64] }* %1 to i8*
  %3 = bitcast { [0 x i64], %"std::ffi::os_str::OsString", [0 x i64], %"core::option::Option<std::ffi::os_str::OsString>", [0 x i64] }* %0 to i8*
  call void @llvm.memcpy.p0i8.p0i8.i64(i8* align 8 %2, i8* align 8 %3, i64 48, i1 false)
  %4 = bitcast { [0 x i64], { [0 x i64], %"std::ffi::os_str::OsString", [0 x i64], %"core::option::Option<std::ffi::os_str::OsString>", [0 x i64] }, [0 x i64] }* %_2 to { [0 x i64], %"std::ffi::os_str::OsString", [0 x i64], %"core::option::Option<std::ffi::os_str::OsString>", [0 x i64] }*
; call core::mem::drop
  call void @_ZN4core3mem4drop17h46ff924f344b32a4E({ [0 x i64], %"std::ffi::os_str::OsString", [0 x i64], %"core::option::Option<std::ffi::os_str::OsString>", [0 x i64] }* noalias nocapture dereferenceable(48) %4)
  br label %bb1

bb1:                                              ; preds = %start
  ret void
}

; core::ops::function::FnOnce::call_once{{vtable.shim}}
; Function Attrs: uwtable
define internal i32 @"_ZN4core3ops8function6FnOnce40call_once$u7b$$u7b$vtable.shim$u7d$$u7d$17hd91a30f10ec804b2E"(i8** %_1) unnamed_addr #1 {
start:
  %_2 = alloca {}, align 1
  %0 = load i8*, i8** %_1, align 8, !nonnull !3
; call core::ops::function::FnOnce::call_once
  %1 = call i32 @_ZN4core3ops8function6FnOnce9call_once17hdd8ea3d433c72b4cE(i8* nonnull %0)
  br label %bb1

bb1:                                              ; preds = %start
  ret i32 %1
}

; core::ops::function::FnOnce::call_once
; Function Attrs: uwtable
define internal i8 @_ZN4core3ops8function6FnOnce9call_once17hb49bc14a2b341892E(i64* noalias readonly align 8 dereferenceable(8), i64* noalias readonly align 8 dereferenceable(8)) unnamed_addr #1 {
start:
  %_2 = alloca { i64*, i64* }, align 8
  %2 = bitcast { i64*, i64* }* %_2 to i64**
  store i64* %0, i64** %2, align 8
  %3 = getelementptr inbounds { i64*, i64* }, { i64*, i64* }* %_2, i32 0, i32 1
  store i64* %1, i64** %3, align 8
  %4 = bitcast { i64*, i64* }* %_2 to i64**
  %5 = load i64*, i64** %4, align 8, !nonnull !3
  %6 = getelementptr inbounds { i64*, i64* }, { i64*, i64* }* %_2, i32 0, i32 1
  %7 = load i64*, i64** %6, align 8, !nonnull !3
; call core::cmp::impls::<impl core::cmp::Ord for usize>::cmp
  %8 = call i8 @"_ZN4core3cmp5impls50_$LT$impl$u20$core..cmp..Ord$u20$for$u20$usize$GT$3cmp17hee036a432df47818E"(i64* noalias readonly align 8 dereferenceable(8) %5, i64* noalias readonly align 8 dereferenceable(8) %7), !range !12
  br label %bb1

bb1:                                              ; preds = %start
  ret i8 %8
}

; core::ops::function::FnOnce::call_once
; Function Attrs: uwtable
define internal i32 @_ZN4core3ops8function6FnOnce9call_once17hdd8ea3d433c72b4cE(i8* nonnull) unnamed_addr #1 personality i32 (i32, i32, i64, %"unwind::libunwind::_Unwind_Exception"*, %"unwind::libunwind::_Unwind_Context"*)* @rust_eh_personality {
start:
  %1 = alloca { i8*, i32 }, align 8
  %_2 = alloca {}, align 1
  %_1 = alloca i8*, align 8
  store i8* %0, i8** %_1, align 8
; invoke std::rt::lang_start::{{closure}}
  %2 = invoke i32 @"_ZN3std2rt10lang_start28_$u7b$$u7b$closure$u7d$$u7d$17h71f96d02a69c3991E"(i8** noalias readonly align 8 dereferenceable(8) %_1)
          to label %bb1 unwind label %cleanup

bb1:                                              ; preds = %start
  br label %bb2

bb2:                                              ; preds = %bb1
  ret i32 %2

bb3:                                              ; preds = %cleanup
  br label %bb4

bb4:                                              ; preds = %bb3
  %3 = bitcast { i8*, i32 }* %1 to i8**
  %4 = load i8*, i8** %3, align 8
  %5 = getelementptr inbounds { i8*, i32 }, { i8*, i32 }* %1, i32 0, i32 1
  %6 = load i32, i32* %5, align 8
  %7 = insertvalue { i8*, i32 } undef, i8* %4, 0
  %8 = insertvalue { i8*, i32 } %7, i32 %6, 1
  resume { i8*, i32 } %8

cleanup:                                          ; preds = %start
  %9 = landingpad { i8*, i32 }
          cleanup
  %10 = extractvalue { i8*, i32 } %9, 0
  %11 = extractvalue { i8*, i32 } %9, 1
  %12 = getelementptr inbounds { i8*, i32 }, { i8*, i32 }* %1, i32 0, i32 0
  store i8* %10, i8** %12, align 8
  %13 = getelementptr inbounds { i8*, i32 }, { i8*, i32 }* %1, i32 0, i32 1
  store i32 %11, i32* %13, align 8
  br label %bb3
}

; core::ptr::drop_in_place
; Function Attrs: uwtable
define internal void @_ZN4core3ptr13drop_in_place17h06af8c7a62386b7eE(%"core::result::Result<usize, std::io::error::Error>"* %_1) unnamed_addr #1 {
start:
  %0 = bitcast %"core::result::Result<usize, std::io::error::Error>"* %_1 to i64*
  %_2 = load i64, i64* %0, align 8, !range !7
  %1 = icmp eq i64 %_2, 0
  br i1 %1, label %bb1, label %bb2

bb1:                                              ; preds = %bb2, %start
  ret void

bb2:                                              ; preds = %start
  %2 = bitcast %"core::result::Result<usize, std::io::error::Error>"* %_1 to %"core::result::Result<usize, std::io::error::Error>::Err"*
  %3 = getelementptr inbounds %"core::result::Result<usize, std::io::error::Error>::Err", %"core::result::Result<usize, std::io::error::Error>::Err"* %2, i32 0, i32 1
; call core::ptr::drop_in_place
  call void @_ZN4core3ptr13drop_in_place17he9a4eba9167d52a3E(%"std::io::error::Error"* %3)
  br label %bb1
}

; core::ptr::drop_in_place
; Function Attrs: uwtable
define internal void @_ZN4core3ptr13drop_in_place17h07306fc61a97e26dE({ i8*, i64 }* %_1) unnamed_addr #1 personality i32 (i32, i32, i64, %"unwind::libunwind::_Unwind_Exception"*, %"unwind::libunwind::_Unwind_Context"*)* @rust_eh_personality {
start:
  %0 = alloca { i8*, i32 }, align 8
; invoke <std::ffi::c_str::CString as core::ops::drop::Drop>::drop
  invoke void @"_ZN66_$LT$std..ffi..c_str..CString$u20$as$u20$core..ops..drop..Drop$GT$4drop17h9174309da4de7cacE"({ i8*, i64 }* align 8 dereferenceable(16) %_1)
          to label %bb4 unwind label %cleanup

bb1:                                              ; preds = %bb3
  %1 = bitcast { i8*, i32 }* %0 to i8**
  %2 = load i8*, i8** %1, align 8
  %3 = getelementptr inbounds { i8*, i32 }, { i8*, i32 }* %0, i32 0, i32 1
  %4 = load i32, i32* %3, align 8
  %5 = insertvalue { i8*, i32 } undef, i8* %2, 0
  %6 = insertvalue { i8*, i32 } %5, i32 %4, 1
  resume { i8*, i32 } %6

bb2:                                              ; preds = %bb4
  ret void

bb3:                                              ; preds = %cleanup
  %7 = bitcast { i8*, i64 }* %_1 to { [0 x i8]*, i64 }*
; call core::ptr::drop_in_place
  call void @_ZN4core3ptr13drop_in_place17h2449ae1951556c57E({ [0 x i8]*, i64 }* %7) #11
  br label %bb1

bb4:                                              ; preds = %start
  %8 = bitcast { i8*, i64 }* %_1 to { [0 x i8]*, i64 }*
; call core::ptr::drop_in_place
  call void @_ZN4core3ptr13drop_in_place17h2449ae1951556c57E({ [0 x i8]*, i64 }* %8)
  br label %bb2

cleanup:                                          ; preds = %start
  %9 = landingpad { i8*, i32 }
          cleanup
  %10 = extractvalue { i8*, i32 } %9, 0
  %11 = extractvalue { i8*, i32 } %9, 1
  %12 = getelementptr inbounds { i8*, i32 }, { i8*, i32 }* %0, i32 0, i32 0
  store i8* %10, i8** %12, align 8
  %13 = getelementptr inbounds { i8*, i32 }, { i8*, i32 }* %0, i32 0, i32 1
  store i32 %11, i32* %13, align 8
  br label %bb3
}

; core::ptr::drop_in_place
; Function Attrs: uwtable
define internal void @_ZN4core3ptr13drop_in_place17h07851e4e39522b52E(%"std::ffi::os_str::OsString"* %_1) unnamed_addr #1 {
start:
  %0 = bitcast %"std::ffi::os_str::OsString"* %_1 to %"std::sys_common::os_str_bytes::Buf"*
; call core::ptr::drop_in_place
  call void @_ZN4core3ptr13drop_in_place17h6d4cb801b0ac3a5aE(%"std::sys_common::os_str_bytes::Buf"* %0)
  br label %bb1

bb1:                                              ; preds = %start
  ret void
}

; core::ptr::drop_in_place
; Function Attrs: uwtable
define internal void @_ZN4core3ptr13drop_in_place17h0892cbe002cd1e8fE(%"alloc::vec::Vec<u8>"* %_1) unnamed_addr #1 personality i32 (i32, i32, i64, %"unwind::libunwind::_Unwind_Exception"*, %"unwind::libunwind::_Unwind_Context"*)* @rust_eh_personality {
start:
  %0 = alloca { i8*, i32 }, align 8
; invoke <alloc::vec::Vec<T> as core::ops::drop::Drop>::drop
  invoke void @"_ZN66_$LT$alloc..vec..Vec$LT$T$GT$$u20$as$u20$core..ops..drop..Drop$GT$4drop17h827acb0b13fd9628E"(%"alloc::vec::Vec<u8>"* align 8 dereferenceable(24) %_1)
          to label %bb4 unwind label %cleanup

bb1:                                              ; preds = %bb3
  %1 = bitcast { i8*, i32 }* %0 to i8**
  %2 = load i8*, i8** %1, align 8
  %3 = getelementptr inbounds { i8*, i32 }, { i8*, i32 }* %0, i32 0, i32 1
  %4 = load i32, i32* %3, align 8
  %5 = insertvalue { i8*, i32 } undef, i8* %2, 0
  %6 = insertvalue { i8*, i32 } %5, i32 %4, 1
  resume { i8*, i32 } %6

bb2:                                              ; preds = %bb4
  ret void

bb3:                                              ; preds = %cleanup
  %7 = bitcast %"alloc::vec::Vec<u8>"* %_1 to { i8*, i64 }*
; call core::ptr::drop_in_place
  call void @_ZN4core3ptr13drop_in_place17h3826fb0e0214acabE({ i8*, i64 }* %7) #11
  br label %bb1

bb4:                                              ; preds = %start
  %8 = bitcast %"alloc::vec::Vec<u8>"* %_1 to { i8*, i64 }*
; call core::ptr::drop_in_place
  call void @_ZN4core3ptr13drop_in_place17h3826fb0e0214acabE({ i8*, i64 }* %8)
  br label %bb2

cleanup:                                          ; preds = %start
  %9 = landingpad { i8*, i32 }
          cleanup
  %10 = extractvalue { i8*, i32 } %9, 0
  %11 = extractvalue { i8*, i32 } %9, 1
  %12 = getelementptr inbounds { i8*, i32 }, { i8*, i32 }* %0, i32 0, i32 0
  store i8* %10, i8** %12, align 8
  %13 = getelementptr inbounds { i8*, i32 }, { i8*, i32 }* %0, i32 0, i32 1
  store i32 %11, i32* %13, align 8
  br label %bb3
}

; core::ptr::drop_in_place
; Function Attrs: uwtable
define internal void @_ZN4core3ptr13drop_in_place17h0a56ca0e3a57c5beE({ [0 x i64], %"std::ffi::os_str::OsString", [0 x i64], %"core::option::Option<std::ffi::os_str::OsString>", [0 x i64] }* %_1) unnamed_addr #1 personality i32 (i32, i32, i64, %"unwind::libunwind::_Unwind_Exception"*, %"unwind::libunwind::_Unwind_Context"*)* @rust_eh_personality {
start:
  %0 = alloca { i8*, i32 }, align 8
  %1 = bitcast { [0 x i64], %"std::ffi::os_str::OsString", [0 x i64], %"core::option::Option<std::ffi::os_str::OsString>", [0 x i64] }* %_1 to %"std::ffi::os_str::OsString"*
; invoke core::ptr::drop_in_place
  invoke void @_ZN4core3ptr13drop_in_place17h07851e4e39522b52E(%"std::ffi::os_str::OsString"* %1)
          to label %bb4 unwind label %cleanup

bb1:                                              ; preds = %bb3
  %2 = bitcast { i8*, i32 }* %0 to i8**
  %3 = load i8*, i8** %2, align 8
  %4 = getelementptr inbounds { i8*, i32 }, { i8*, i32 }* %0, i32 0, i32 1
  %5 = load i32, i32* %4, align 8
  %6 = insertvalue { i8*, i32 } undef, i8* %3, 0
  %7 = insertvalue { i8*, i32 } %6, i32 %5, 1
  resume { i8*, i32 } %7

bb2:                                              ; preds = %bb4
  ret void

bb3:                                              ; preds = %cleanup
  %8 = getelementptr inbounds { [0 x i64], %"std::ffi::os_str::OsString", [0 x i64], %"core::option::Option<std::ffi::os_str::OsString>", [0 x i64] }, { [0 x i64], %"std::ffi::os_str::OsString", [0 x i64], %"core::option::Option<std::ffi::os_str::OsString>", [0 x i64] }* %_1, i32 0, i32 3
; call core::ptr::drop_in_place
  call void @_ZN4core3ptr13drop_in_place17hae3e51f2158c2b61E(%"core::option::Option<std::ffi::os_str::OsString>"* %8) #11
  br label %bb1

bb4:                                              ; preds = %start
  %9 = getelementptr inbounds { [0 x i64], %"std::ffi::os_str::OsString", [0 x i64], %"core::option::Option<std::ffi::os_str::OsString>", [0 x i64] }, { [0 x i64], %"std::ffi::os_str::OsString", [0 x i64], %"core::option::Option<std::ffi::os_str::OsString>", [0 x i64] }* %_1, i32 0, i32 3
; call core::ptr::drop_in_place
  call void @_ZN4core3ptr13drop_in_place17hae3e51f2158c2b61E(%"core::option::Option<std::ffi::os_str::OsString>"* %9)
  br label %bb2

cleanup:                                          ; preds = %start
  %10 = landingpad { i8*, i32 }
          cleanup
  %11 = extractvalue { i8*, i32 } %10, 0
  %12 = extractvalue { i8*, i32 } %10, 1
  %13 = getelementptr inbounds { i8*, i32 }, { i8*, i32 }* %0, i32 0, i32 0
  store i8* %11, i8** %13, align 8
  %14 = getelementptr inbounds { i8*, i32 }, { i8*, i32 }* %0, i32 0, i32 1
  store i32 %12, i32* %14, align 8
  br label %bb3
}

; core::ptr::drop_in_place
; Function Attrs: uwtable
define internal void @_ZN4core3ptr13drop_in_place17h0be8f2dd0311b323E(%"std::env::VarError"* %_1) unnamed_addr #1 {
start:
  %0 = bitcast %"std::env::VarError"* %_1 to {}**
  %1 = load {}*, {}** %0, align 8
  %2 = icmp ule {}* %1, null
  %_2 = select i1 %2, i64 0, i64 1
  %3 = icmp eq i64 %_2, 0
  br i1 %3, label %bb1, label %bb2

bb1:                                              ; preds = %bb2, %start
  ret void

bb2:                                              ; preds = %start
  %4 = bitcast %"std::env::VarError"* %_1 to %"std::env::VarError::NotUnicode"*
  %5 = bitcast %"std::env::VarError::NotUnicode"* %4 to %"std::ffi::os_str::OsString"*
; call core::ptr::drop_in_place
  call void @_ZN4core3ptr13drop_in_place17h07851e4e39522b52E(%"std::ffi::os_str::OsString"* %5)
  br label %bb1
}

; core::ptr::drop_in_place
; Function Attrs: uwtable
define internal void @_ZN4core3ptr13drop_in_place17h0fde670605ae926eE(%"alloc::vec::Vec<alloc::boxed::Box<core::ops::function::FnMut<(), Output=core::result::Result<(), std::io::error::Error>>>>"* %_1) unnamed_addr #1 personality i32 (i32, i32, i64, %"unwind::libunwind::_Unwind_Exception"*, %"unwind::libunwind::_Unwind_Context"*)* @rust_eh_personality {
start:
  %0 = alloca { i8*, i32 }, align 8
; invoke <alloc::vec::Vec<T> as core::ops::drop::Drop>::drop
  invoke void @"_ZN66_$LT$alloc..vec..Vec$LT$T$GT$$u20$as$u20$core..ops..drop..Drop$GT$4drop17h287fbda811308dd7E"(%"alloc::vec::Vec<alloc::boxed::Box<core::ops::function::FnMut<(), Output=core::result::Result<(), std::io::error::Error>>>>"* align 8 dereferenceable(24) %_1)
          to label %bb4 unwind label %cleanup

bb1:                                              ; preds = %bb3
  %1 = bitcast { i8*, i32 }* %0 to i8**
  %2 = load i8*, i8** %1, align 8
  %3 = getelementptr inbounds { i8*, i32 }, { i8*, i32 }* %0, i32 0, i32 1
  %4 = load i32, i32* %3, align 8
  %5 = insertvalue { i8*, i32 } undef, i8* %2, 0
  %6 = insertvalue { i8*, i32 } %5, i32 %4, 1
  resume { i8*, i32 } %6

bb2:                                              ; preds = %bb4
  ret void

bb3:                                              ; preds = %cleanup
  %7 = bitcast %"alloc::vec::Vec<alloc::boxed::Box<core::ops::function::FnMut<(), Output=core::result::Result<(), std::io::error::Error>>>>"* %_1 to { i64*, i64 }*
; call core::ptr::drop_in_place
  call void @_ZN4core3ptr13drop_in_place17hc8ae5e82c9ab7ca3E({ i64*, i64 }* %7) #11
  br label %bb1

bb4:                                              ; preds = %start
  %8 = bitcast %"alloc::vec::Vec<alloc::boxed::Box<core::ops::function::FnMut<(), Output=core::result::Result<(), std::io::error::Error>>>>"* %_1 to { i64*, i64 }*
; call core::ptr::drop_in_place
  call void @_ZN4core3ptr13drop_in_place17hc8ae5e82c9ab7ca3E({ i64*, i64 }* %8)
  br label %bb2

cleanup:                                          ; preds = %start
  %9 = landingpad { i8*, i32 }
          cleanup
  %10 = extractvalue { i8*, i32 } %9, 0
  %11 = extractvalue { i8*, i32 } %9, 1
  %12 = getelementptr inbounds { i8*, i32 }, { i8*, i32 }* %0, i32 0, i32 0
  store i8* %10, i8** %12, align 8
  %13 = getelementptr inbounds { i8*, i32 }, { i8*, i32 }* %0, i32 0, i32 1
  store i32 %11, i32* %13, align 8
  br label %bb3
}

; core::ptr::drop_in_place
; Function Attrs: uwtable
define internal void @_ZN4core3ptr13drop_in_place17h13daa1e0507de450E({}* %_1.0, [3 x i64]* noalias readonly align 8 dereferenceable(24) %_1.1) unnamed_addr #1 {
start:
  %0 = bitcast [3 x i64]* %_1.1 to void ({}*)**
  %1 = getelementptr inbounds void ({}*)*, void ({}*)** %0, i64 0
  %2 = load void ({}*)*, void ({}*)** %1, align 8, !invariant.load !3, !nonnull !3
  call void %2({}* %_1.0)
  br label %bb1

bb1:                                              ; preds = %start
  ret void
}

; core::ptr::drop_in_place
; Function Attrs: uwtable
define internal void @_ZN4core3ptr13drop_in_place17h15a409f22cb43f61E(%"core::result::Result<(), std::io::error::Error>"* %_1) unnamed_addr #1 {
start:
  %0 = bitcast %"core::result::Result<(), std::io::error::Error>"* %_1 to i8*
  %1 = load i8, i8* %0, align 8, !range !19
  %2 = sub i8 %1, 3
  %3 = icmp ule i8 %2, 0
  %_2 = select i1 %3, i64 0, i64 1
  %4 = icmp eq i64 %_2, 0
  br i1 %4, label %bb1, label %bb2

bb1:                                              ; preds = %bb2, %start
  ret void

bb2:                                              ; preds = %start
  %5 = bitcast %"core::result::Result<(), std::io::error::Error>"* %_1 to %"core::result::Result<(), std::io::error::Error>::Err"*
  %6 = bitcast %"core::result::Result<(), std::io::error::Error>::Err"* %5 to %"std::io::error::Error"*
; call core::ptr::drop_in_place
  call void @_ZN4core3ptr13drop_in_place17he9a4eba9167d52a3E(%"std::io::error::Error"* %6)
  br label %bb1
}

; core::ptr::drop_in_place
; Function Attrs: uwtable
define internal void @_ZN4core3ptr13drop_in_place17h1ccfb63075927debE({ {}*, [3 x i64]* }* %_1) unnamed_addr #1 personality i32 (i32, i32, i64, %"unwind::libunwind::_Unwind_Exception"*, %"unwind::libunwind::_Unwind_Context"*)* @rust_eh_personality {
start:
  %0 = alloca { i8*, i32 }, align 8
  %1 = getelementptr inbounds { {}*, [3 x i64]* }, { {}*, [3 x i64]* }* %_1, i32 0, i32 0
  %2 = load {}*, {}** %1, align 8, !nonnull !3
  %3 = getelementptr inbounds { {}*, [3 x i64]* }, { {}*, [3 x i64]* }* %_1, i32 0, i32 1
  %4 = load [3 x i64]*, [3 x i64]** %3, align 8, !nonnull !3
  %5 = bitcast [3 x i64]* %4 to void ({}*)**
  %6 = getelementptr inbounds void ({}*)*, void ({}*)** %5, i64 0
  %7 = load void ({}*)*, void ({}*)** %6, align 8, !invariant.load !3, !nonnull !3
  invoke void %7({}* %2)
          to label %bb3 unwind label %cleanup

bb1:                                              ; preds = %bb3
  ret void

bb2:                                              ; preds = %bb4
  %8 = bitcast { i8*, i32 }* %0 to i8**
  %9 = load i8*, i8** %8, align 8
  %10 = getelementptr inbounds { i8*, i32 }, { i8*, i32 }* %0, i32 0, i32 1
  %11 = load i32, i32* %10, align 8
  %12 = insertvalue { i8*, i32 } undef, i8* %9, 0
  %13 = insertvalue { i8*, i32 } %12, i32 %11, 1
  resume { i8*, i32 } %13

bb3:                                              ; preds = %start
  %14 = bitcast { {}*, [3 x i64]* }* %_1 to { i8*, i64* }*
  %15 = getelementptr inbounds { i8*, i64* }, { i8*, i64* }* %14, i32 0, i32 0
  %16 = load i8*, i8** %15, align 8, !nonnull !3
  %17 = getelementptr inbounds { i8*, i64* }, { i8*, i64* }* %14, i32 0, i32 1
  %18 = load i64*, i64** %17, align 8, !nonnull !3
; call alloc::alloc::box_free
  call void @_ZN5alloc5alloc8box_free17h184c2b167b8198ecE(i8* nonnull %16, i64* noalias readonly align 8 dereferenceable(24) %18)
  br label %bb1

bb4:                                              ; preds = %cleanup
  %19 = bitcast { {}*, [3 x i64]* }* %_1 to { i8*, i64* }*
  %20 = getelementptr inbounds { i8*, i64* }, { i8*, i64* }* %19, i32 0, i32 0
  %21 = load i8*, i8** %20, align 8, !nonnull !3
  %22 = getelementptr inbounds { i8*, i64* }, { i8*, i64* }* %19, i32 0, i32 1
  %23 = load i64*, i64** %22, align 8, !nonnull !3
; call alloc::alloc::box_free
  call void @_ZN5alloc5alloc8box_free17h184c2b167b8198ecE(i8* nonnull %21, i64* noalias readonly align 8 dereferenceable(24) %23) #11
  br label %bb2

cleanup:                                          ; preds = %start
  %24 = landingpad { i8*, i32 }
          cleanup
  %25 = extractvalue { i8*, i32 } %24, 0
  %26 = extractvalue { i8*, i32 } %24, 1
  %27 = getelementptr inbounds { i8*, i32 }, { i8*, i32 }* %0, i32 0, i32 0
  store i8* %25, i8** %27, align 8
  %28 = getelementptr inbounds { i8*, i32 }, { i8*, i32 }* %0, i32 0, i32 1
  store i32 %26, i32* %28, align 8
  br label %bb4
}

; core::ptr::drop_in_place
; Function Attrs: uwtable
define internal void @_ZN4core3ptr13drop_in_place17h21dd21c3bb71a501E(%"std::sys::unix::process::process_common::Argv"* %_1) unnamed_addr #1 {
start:
  %0 = bitcast %"std::sys::unix::process::process_common::Argv"* %_1 to %"alloc::vec::Vec<*const i8>"*
; call core::ptr::drop_in_place
  call void @_ZN4core3ptr13drop_in_place17h9ec54b2b13b052deE(%"alloc::vec::Vec<*const i8>"* %0)
  br label %bb1

bb1:                                              ; preds = %start
  ret void
}

; core::ptr::drop_in_place
; Function Attrs: uwtable
define internal void @_ZN4core3ptr13drop_in_place17h22310cd85bcecde8E({ i64*, i64 }* %_1) unnamed_addr #1 {
start:
; call <alloc::raw_vec::RawVec<T,A> as core::ops::drop::Drop>::drop
  call void @"_ZN77_$LT$alloc..raw_vec..RawVec$LT$T$C$A$GT$$u20$as$u20$core..ops..drop..Drop$GT$4drop17h736bd0882bf07c7bE"({ i64*, i64 }* align 8 dereferenceable(16) %_1)
  br label %bb1

bb1:                                              ; preds = %start
  ret void
}

; core::ptr::drop_in_place
; Function Attrs: uwtable
define internal void @_ZN4core3ptr13drop_in_place17h2449ae1951556c57E({ [0 x i8]*, i64 }* %_1) unnamed_addr #1 personality i32 (i32, i32, i64, %"unwind::libunwind::_Unwind_Exception"*, %"unwind::libunwind::_Unwind_Context"*)* @rust_eh_personality {
start:
  %0 = alloca { i8*, i32 }, align 8
  br label %bb3

bb1:                                              ; preds = %bb3
  ret void

bb2:                                              ; preds = %bb4
  %1 = bitcast { i8*, i32 }* %0 to i8**
  %2 = load i8*, i8** %1, align 8
  %3 = getelementptr inbounds { i8*, i32 }, { i8*, i32 }* %0, i32 0, i32 1
  %4 = load i32, i32* %3, align 8
  %5 = insertvalue { i8*, i32 } undef, i8* %2, 0
  %6 = insertvalue { i8*, i32 } %5, i32 %4, 1
  resume { i8*, i32 } %6

bb3:                                              ; preds = %start
  %7 = bitcast { [0 x i8]*, i64 }* %_1 to { i8*, i64 }*
  %8 = getelementptr inbounds { i8*, i64 }, { i8*, i64 }* %7, i32 0, i32 0
  %9 = load i8*, i8** %8, align 8, !nonnull !3
  %10 = getelementptr inbounds { i8*, i64 }, { i8*, i64 }* %7, i32 0, i32 1
  %11 = load i64, i64* %10, align 8
; call alloc::alloc::box_free
  call void @_ZN5alloc5alloc8box_free17h5c3fb030ce835408E(i8* nonnull %9, i64 %11)
  br label %bb1

bb4:                                              ; No predecessors!
  %12 = bitcast { [0 x i8]*, i64 }* %_1 to { i8*, i64 }*
  %13 = getelementptr inbounds { i8*, i64 }, { i8*, i64 }* %12, i32 0, i32 0
  %14 = load i8*, i8** %13, align 8, !nonnull !3
  %15 = getelementptr inbounds { i8*, i64 }, { i8*, i64 }* %12, i32 0, i32 1
  %16 = load i64, i64* %15, align 8
; call alloc::alloc::box_free
  call void @_ZN5alloc5alloc8box_free17h5c3fb030ce835408E(i8* nonnull %14, i64 %16) #11
  br label %bb2
}

; core::ptr::drop_in_place
; Function Attrs: uwtable
define internal void @_ZN4core3ptr13drop_in_place17h2c4dd5442149ce18E(i32* %_1) unnamed_addr #1 {
start:
; call core::ptr::drop_in_place
  call void @_ZN4core3ptr13drop_in_place17h6ccc3a9de8a01b72E(i32* %_1)
  br label %bb1

bb1:                                              ; preds = %start
  ret void
}

; core::ptr::drop_in_place
; Function Attrs: uwtable
define internal void @_ZN4core3ptr13drop_in_place17h2ce0390bc2b46dc1E(%"std::process::Output"* %_1) unnamed_addr #1 personality i32 (i32, i32, i64, %"unwind::libunwind::_Unwind_Exception"*, %"unwind::libunwind::_Unwind_Context"*)* @rust_eh_personality {
start:
  %0 = alloca { i8*, i32 }, align 8
  %1 = bitcast %"std::process::Output"* %_1 to %"alloc::vec::Vec<u8>"*
; invoke core::ptr::drop_in_place
  invoke void @_ZN4core3ptr13drop_in_place17h0892cbe002cd1e8fE(%"alloc::vec::Vec<u8>"* %1)
          to label %bb4 unwind label %cleanup

bb1:                                              ; preds = %bb3
  %2 = bitcast { i8*, i32 }* %0 to i8**
  %3 = load i8*, i8** %2, align 8
  %4 = getelementptr inbounds { i8*, i32 }, { i8*, i32 }* %0, i32 0, i32 1
  %5 = load i32, i32* %4, align 8
  %6 = insertvalue { i8*, i32 } undef, i8* %3, 0
  %7 = insertvalue { i8*, i32 } %6, i32 %5, 1
  resume { i8*, i32 } %7

bb2:                                              ; preds = %bb4
  ret void

bb3:                                              ; preds = %cleanup
  %8 = getelementptr inbounds %"std::process::Output", %"std::process::Output"* %_1, i32 0, i32 3
; call core::ptr::drop_in_place
  call void @_ZN4core3ptr13drop_in_place17h0892cbe002cd1e8fE(%"alloc::vec::Vec<u8>"* %8) #11
  br label %bb1

bb4:                                              ; preds = %start
  %9 = getelementptr inbounds %"std::process::Output", %"std::process::Output"* %_1, i32 0, i32 3
; call core::ptr::drop_in_place
  call void @_ZN4core3ptr13drop_in_place17h0892cbe002cd1e8fE(%"alloc::vec::Vec<u8>"* %9)
  br label %bb2

cleanup:                                          ; preds = %start
  %10 = landingpad { i8*, i32 }
          cleanup
  %11 = extractvalue { i8*, i32 } %10, 0
  %12 = extractvalue { i8*, i32 } %10, 1
  %13 = getelementptr inbounds { i8*, i32 }, { i8*, i32 }* %0, i32 0, i32 0
  store i8* %11, i8** %13, align 8
  %14 = getelementptr inbounds { i8*, i32 }, { i8*, i32 }* %0, i32 0, i32 1
  store i32 %12, i32* %14, align 8
  br label %bb3
}

; core::ptr::drop_in_place
; Function Attrs: uwtable
define internal void @_ZN4core3ptr13drop_in_place17h3826fb0e0214acabE({ i8*, i64 }* %_1) unnamed_addr #1 {
start:
; call <alloc::raw_vec::RawVec<T,A> as core::ops::drop::Drop>::drop
  call void @"_ZN77_$LT$alloc..raw_vec..RawVec$LT$T$C$A$GT$$u20$as$u20$core..ops..drop..Drop$GT$4drop17h8a60ee666bd02980E"({ i8*, i64 }* align 8 dereferenceable(16) %_1)
  br label %bb1

bb1:                                              ; preds = %start
  ret void
}

; core::ptr::drop_in_place
; Function Attrs: uwtable
define internal void @_ZN4core3ptr13drop_in_place17h419152b83c7556e2E(%"alloc::vec::Vec<std::ffi::c_str::CString>"* %_1) unnamed_addr #1 personality i32 (i32, i32, i64, %"unwind::libunwind::_Unwind_Exception"*, %"unwind::libunwind::_Unwind_Context"*)* @rust_eh_personality {
start:
  %0 = alloca { i8*, i32 }, align 8
; invoke <alloc::vec::Vec<T> as core::ops::drop::Drop>::drop
  invoke void @"_ZN66_$LT$alloc..vec..Vec$LT$T$GT$$u20$as$u20$core..ops..drop..Drop$GT$4drop17h37e9f77fbebba7fbE"(%"alloc::vec::Vec<std::ffi::c_str::CString>"* align 8 dereferenceable(24) %_1)
          to label %bb4 unwind label %cleanup

bb1:                                              ; preds = %bb3
  %1 = bitcast { i8*, i32 }* %0 to i8**
  %2 = load i8*, i8** %1, align 8
  %3 = getelementptr inbounds { i8*, i32 }, { i8*, i32 }* %0, i32 0, i32 1
  %4 = load i32, i32* %3, align 8
  %5 = insertvalue { i8*, i32 } undef, i8* %2, 0
  %6 = insertvalue { i8*, i32 } %5, i32 %4, 1
  resume { i8*, i32 } %6

bb2:                                              ; preds = %bb4
  ret void

bb3:                                              ; preds = %cleanup
  %7 = bitcast %"alloc::vec::Vec<std::ffi::c_str::CString>"* %_1 to { i64*, i64 }*
; call core::ptr::drop_in_place
  call void @_ZN4core3ptr13drop_in_place17h5da7aa6e403d66bcE({ i64*, i64 }* %7) #11
  br label %bb1

bb4:                                              ; preds = %start
  %8 = bitcast %"alloc::vec::Vec<std::ffi::c_str::CString>"* %_1 to { i64*, i64 }*
; call core::ptr::drop_in_place
  call void @_ZN4core3ptr13drop_in_place17h5da7aa6e403d66bcE({ i64*, i64 }* %8)
  br label %bb2

cleanup:                                          ; preds = %start
  %9 = landingpad { i8*, i32 }
          cleanup
  %10 = extractvalue { i8*, i32 } %9, 0
  %11 = extractvalue { i8*, i32 } %9, 1
  %12 = getelementptr inbounds { i8*, i32 }, { i8*, i32 }* %0, i32 0, i32 0
  store i8* %10, i8** %12, align 8
  %13 = getelementptr inbounds { i8*, i32 }, { i8*, i32 }* %0, i32 0, i32 1
  store i32 %11, i32* %13, align 8
  br label %bb3
}

; core::ptr::drop_in_place
; Function Attrs: uwtable
define internal void @_ZN4core3ptr13drop_in_place17h4c9c8af814cd985bE(%"core::convert::Infallible"* %_1) unnamed_addr #1 {
start:
  ret void
}

; core::ptr::drop_in_place
; Function Attrs: uwtable
define internal void @_ZN4core3ptr13drop_in_place17h51e073e9af67a69bE({ i32, i32 }* %_1) unnamed_addr #1 {
start:
  %0 = bitcast { i32, i32 }* %_1 to i32*
  %1 = load i32, i32* %0, align 4, !range !20
  %_2 = zext i32 %1 to i64
  switch i64 %_2, label %bb2 [
    i64 0, label %bb1
    i64 1, label %bb1
    i64 2, label %bb1
  ]

bb1:                                              ; preds = %bb2, %start, %start, %start
  ret void

bb2:                                              ; preds = %start
  %2 = bitcast { i32, i32 }* %_1 to %"std::sys::unix::process::process_common::Stdio::Fd"*
  %3 = getelementptr inbounds %"std::sys::unix::process::process_common::Stdio::Fd", %"std::sys::unix::process::process_common::Stdio::Fd"* %2, i32 0, i32 1
; call core::ptr::drop_in_place
  call void @_ZN4core3ptr13drop_in_place17haca1c9efcadb53ecE(i32* %3)
  br label %bb1
}

; core::ptr::drop_in_place
; Function Attrs: uwtable
define internal void @_ZN4core3ptr13drop_in_place17h52cad3a261a17130E(%"core::result::Result<alloc::string::String, alloc::string::FromUtf8Error>"* %_1) unnamed_addr #1 {
start:
  %0 = bitcast %"core::result::Result<alloc::string::String, alloc::string::FromUtf8Error>"* %_1 to i64*
  %_2 = load i64, i64* %0, align 8, !range !7
  %1 = icmp eq i64 %_2, 0
  br i1 %1, label %bb2, label %bb3

bb1:                                              ; preds = %bb2, %bb3
  ret void

bb2:                                              ; preds = %start
  %2 = bitcast %"core::result::Result<alloc::string::String, alloc::string::FromUtf8Error>"* %_1 to %"core::result::Result<alloc::string::String, alloc::string::FromUtf8Error>::Ok"*
  %3 = getelementptr inbounds %"core::result::Result<alloc::string::String, alloc::string::FromUtf8Error>::Ok", %"core::result::Result<alloc::string::String, alloc::string::FromUtf8Error>::Ok"* %2, i32 0, i32 1
; call core::ptr::drop_in_place
  call void @_ZN4core3ptr13drop_in_place17hc6f7be1d11434a48E(%"alloc::string::String"* %3)
  br label %bb1

bb3:                                              ; preds = %start
  %4 = bitcast %"core::result::Result<alloc::string::String, alloc::string::FromUtf8Error>"* %_1 to %"core::result::Result<alloc::string::String, alloc::string::FromUtf8Error>::Err"*
  %5 = getelementptr inbounds %"core::result::Result<alloc::string::String, alloc::string::FromUtf8Error>::Err", %"core::result::Result<alloc::string::String, alloc::string::FromUtf8Error>::Err"* %4, i32 0, i32 1
; call core::ptr::drop_in_place
  call void @_ZN4core3ptr13drop_in_place17h5d5f922175a5c96eE(%"alloc::string::FromUtf8Error"* %5)
  br label %bb1
}

; core::ptr::drop_in_place
; Function Attrs: uwtable
define internal void @_ZN4core3ptr13drop_in_place17h5d5f922175a5c96eE(%"alloc::string::FromUtf8Error"* %_1) unnamed_addr #1 {
start:
  %0 = bitcast %"alloc::string::FromUtf8Error"* %_1 to %"alloc::vec::Vec<u8>"*
; call core::ptr::drop_in_place
  call void @_ZN4core3ptr13drop_in_place17h0892cbe002cd1e8fE(%"alloc::vec::Vec<u8>"* %0)
  br label %bb1

bb1:                                              ; preds = %start
  ret void
}

; core::ptr::drop_in_place
; Function Attrs: uwtable
define internal void @_ZN4core3ptr13drop_in_place17h5da7aa6e403d66bcE({ i64*, i64 }* %_1) unnamed_addr #1 {
start:
; call <alloc::raw_vec::RawVec<T,A> as core::ops::drop::Drop>::drop
  call void @"_ZN77_$LT$alloc..raw_vec..RawVec$LT$T$C$A$GT$$u20$as$u20$core..ops..drop..Drop$GT$4drop17h48b03af970d1fcc4E"({ i64*, i64 }* align 8 dereferenceable(16) %_1)
  br label %bb1

bb1:                                              ; preds = %start
  ret void
}

; core::ptr::drop_in_place
; Function Attrs: uwtable
define internal void @_ZN4core3ptr13drop_in_place17h6ccc3a9de8a01b72E(i32* %_1) unnamed_addr #1 {
start:
; call core::ptr::drop_in_place
  call void @_ZN4core3ptr13drop_in_place17haca1c9efcadb53ecE(i32* %_1)
  br label %bb1

bb1:                                              ; preds = %start
  ret void
}

; core::ptr::drop_in_place
; Function Attrs: uwtable
define internal void @_ZN4core3ptr13drop_in_place17h6d4cb801b0ac3a5aE(%"std::sys_common::os_str_bytes::Buf"* %_1) unnamed_addr #1 {
start:
  %0 = bitcast %"std::sys_common::os_str_bytes::Buf"* %_1 to %"alloc::vec::Vec<u8>"*
; call core::ptr::drop_in_place
  call void @_ZN4core3ptr13drop_in_place17h0892cbe002cd1e8fE(%"alloc::vec::Vec<u8>"* %0)
  br label %bb1

bb1:                                              ; preds = %start
  ret void
}

; core::ptr::drop_in_place
; Function Attrs: uwtable
define internal void @_ZN4core3ptr13drop_in_place17h6e08c2439ca9673eE(i8** %_1) unnamed_addr #1 {
start:
  ret void
}

; core::ptr::drop_in_place
; Function Attrs: uwtable
define internal void @_ZN4core3ptr13drop_in_place17h6fd868a3ed678691E(%"alloc::collections::btree::map::IntoIter<std::ffi::os_str::OsString, core::option::Option<std::ffi::os_str::OsString>>"* %_1) unnamed_addr #1 {
start:
; call <alloc::collections::btree::map::IntoIter<K,V> as core::ops::drop::Drop>::drop
  call void @"_ZN95_$LT$alloc..collections..btree..map..IntoIter$LT$K$C$V$GT$$u20$as$u20$core..ops..drop..Drop$GT$4drop17h9753a1a20e955cadE"(%"alloc::collections::btree::map::IntoIter<std::ffi::os_str::OsString, core::option::Option<std::ffi::os_str::OsString>>"* align 8 dereferenceable(72) %_1)
  br label %bb1

bb1:                                              ; preds = %start
  ret void
}

; core::ptr::drop_in_place
; Function Attrs: uwtable
define internal void @_ZN4core3ptr13drop_in_place17h7c089f74bed0dd9cE({}* %_1.0, [3 x i64]* noalias readonly align 8 dereferenceable(24) %_1.1) unnamed_addr #1 {
start:
  %0 = bitcast [3 x i64]* %_1.1 to void ({}*)**
  %1 = getelementptr inbounds void ({}*)*, void ({}*)** %0, i64 0
  %2 = load void ({}*)*, void ({}*)** %1, align 8, !invariant.load !3, !nonnull !3
  call void %2({}* %_1.0)
  br label %bb1

bb1:                                              ; preds = %start
  ret void
}

; core::ptr::drop_in_place
; Function Attrs: uwtable
define internal void @_ZN4core3ptr13drop_in_place17h7e0072b5d9fb5b8dE(%"std::sys::unix::process::process_common::Command"* %_1) unnamed_addr #1 personality i32 (i32, i32, i64, %"unwind::libunwind::_Unwind_Exception"*, %"unwind::libunwind::_Unwind_Context"*)* @rust_eh_personality {
start:
  %0 = alloca { i8*, i32 }, align 8
  %1 = bitcast %"std::sys::unix::process::process_common::Command"* %_1 to { i8*, i64 }*
; invoke core::ptr::drop_in_place
  invoke void @_ZN4core3ptr13drop_in_place17h07306fc61a97e26dE({ i8*, i64 }* %1)
          to label %bb18 unwind label %cleanup

bb1:                                              ; preds = %bb3
  %2 = bitcast { i8*, i32 }* %0 to i8**
  %3 = load i8*, i8** %2, align 8
  %4 = getelementptr inbounds { i8*, i32 }, { i8*, i32 }* %0, i32 0, i32 1
  %5 = load i32, i32* %4, align 8
  %6 = insertvalue { i8*, i32 } undef, i8* %3, 0
  %7 = insertvalue { i8*, i32 } %6, i32 %5, 1
  resume { i8*, i32 } %7

bb2:                                              ; preds = %bb11
  ret void

bb3:                                              ; preds = %cleanup7, %bb4
  %8 = getelementptr inbounds %"std::sys::unix::process::process_common::Command", %"std::sys::unix::process::process_common::Command"* %_1, i32 0, i32 21
; call core::ptr::drop_in_place
  call void @_ZN4core3ptr13drop_in_place17h9d3293959f1e12c6E({ i32, i32 }* %8) #11
  br label %bb1

bb4:                                              ; preds = %cleanup6, %bb5
  %9 = getelementptr inbounds %"std::sys::unix::process::process_common::Command", %"std::sys::unix::process::process_common::Command"* %_1, i32 0, i32 19
; call core::ptr::drop_in_place
  call void @_ZN4core3ptr13drop_in_place17h9d3293959f1e12c6E({ i32, i32 }* %9) #11
  br label %bb3

bb5:                                              ; preds = %cleanup5, %bb6
  %10 = getelementptr inbounds %"std::sys::unix::process::process_common::Command", %"std::sys::unix::process::process_common::Command"* %_1, i32 0, i32 17
; call core::ptr::drop_in_place
  call void @_ZN4core3ptr13drop_in_place17h9d3293959f1e12c6E({ i32, i32 }* %10) #11
  br label %bb4

bb6:                                              ; preds = %cleanup4, %bb7
  %11 = getelementptr inbounds %"std::sys::unix::process::process_common::Command", %"std::sys::unix::process::process_common::Command"* %_1, i32 0, i32 11
; call core::ptr::drop_in_place
  call void @_ZN4core3ptr13drop_in_place17h0fde670605ae926eE(%"alloc::vec::Vec<alloc::boxed::Box<core::ops::function::FnMut<(), Output=core::result::Result<(), std::io::error::Error>>>>"* %11) #11
  br label %bb5

bb7:                                              ; preds = %cleanup3, %bb8
  %12 = getelementptr inbounds %"std::sys::unix::process::process_common::Command", %"std::sys::unix::process::process_common::Command"* %_1, i32 0, i32 9
; call core::ptr::drop_in_place
  call void @_ZN4core3ptr13drop_in_place17h80311b09959b0970E({ i8*, i64 }* %12) #11
  br label %bb6

bb8:                                              ; preds = %cleanup2, %bb9
  %13 = getelementptr inbounds %"std::sys::unix::process::process_common::Command", %"std::sys::unix::process::process_common::Command"* %_1, i32 0, i32 7
; call core::ptr::drop_in_place
  call void @_ZN4core3ptr13drop_in_place17ha26aebc9c5ab3612E(%"std::sys_common::process::CommandEnv"* %13) #11
  br label %bb7

bb9:                                              ; preds = %cleanup1, %bb10
  %14 = getelementptr inbounds %"std::sys::unix::process::process_common::Command", %"std::sys::unix::process::process_common::Command"* %_1, i32 0, i32 5
; call core::ptr::drop_in_place
  call void @_ZN4core3ptr13drop_in_place17h21dd21c3bb71a501E(%"std::sys::unix::process::process_common::Argv"* %14) #11
  br label %bb8

bb10:                                             ; preds = %cleanup
  %15 = getelementptr inbounds %"std::sys::unix::process::process_common::Command", %"std::sys::unix::process::process_common::Command"* %_1, i32 0, i32 3
; call core::ptr::drop_in_place
  call void @_ZN4core3ptr13drop_in_place17h419152b83c7556e2E(%"alloc::vec::Vec<std::ffi::c_str::CString>"* %15) #11
  br label %bb9

bb11:                                             ; preds = %bb12
  %16 = getelementptr inbounds %"std::sys::unix::process::process_common::Command", %"std::sys::unix::process::process_common::Command"* %_1, i32 0, i32 21
; call core::ptr::drop_in_place
  call void @_ZN4core3ptr13drop_in_place17h9d3293959f1e12c6E({ i32, i32 }* %16)
  br label %bb2

bb12:                                             ; preds = %bb13
  %17 = getelementptr inbounds %"std::sys::unix::process::process_common::Command", %"std::sys::unix::process::process_common::Command"* %_1, i32 0, i32 19
; invoke core::ptr::drop_in_place
  invoke void @_ZN4core3ptr13drop_in_place17h9d3293959f1e12c6E({ i32, i32 }* %17)
          to label %bb11 unwind label %cleanup7

bb13:                                             ; preds = %bb14
  %18 = getelementptr inbounds %"std::sys::unix::process::process_common::Command", %"std::sys::unix::process::process_common::Command"* %_1, i32 0, i32 17
; invoke core::ptr::drop_in_place
  invoke void @_ZN4core3ptr13drop_in_place17h9d3293959f1e12c6E({ i32, i32 }* %18)
          to label %bb12 unwind label %cleanup6

bb14:                                             ; preds = %bb15
  %19 = getelementptr inbounds %"std::sys::unix::process::process_common::Command", %"std::sys::unix::process::process_common::Command"* %_1, i32 0, i32 11
; invoke core::ptr::drop_in_place
  invoke void @_ZN4core3ptr13drop_in_place17h0fde670605ae926eE(%"alloc::vec::Vec<alloc::boxed::Box<core::ops::function::FnMut<(), Output=core::result::Result<(), std::io::error::Error>>>>"* %19)
          to label %bb13 unwind label %cleanup5

bb15:                                             ; preds = %bb16
  %20 = getelementptr inbounds %"std::sys::unix::process::process_common::Command", %"std::sys::unix::process::process_common::Command"* %_1, i32 0, i32 9
; invoke core::ptr::drop_in_place
  invoke void @_ZN4core3ptr13drop_in_place17h80311b09959b0970E({ i8*, i64 }* %20)
          to label %bb14 unwind label %cleanup4

bb16:                                             ; preds = %bb17
  %21 = getelementptr inbounds %"std::sys::unix::process::process_common::Command", %"std::sys::unix::process::process_common::Command"* %_1, i32 0, i32 7
; invoke core::ptr::drop_in_place
  invoke void @_ZN4core3ptr13drop_in_place17ha26aebc9c5ab3612E(%"std::sys_common::process::CommandEnv"* %21)
          to label %bb15 unwind label %cleanup3

bb17:                                             ; preds = %bb18
  %22 = getelementptr inbounds %"std::sys::unix::process::process_common::Command", %"std::sys::unix::process::process_common::Command"* %_1, i32 0, i32 5
; invoke core::ptr::drop_in_place
  invoke void @_ZN4core3ptr13drop_in_place17h21dd21c3bb71a501E(%"std::sys::unix::process::process_common::Argv"* %22)
          to label %bb16 unwind label %cleanup2

bb18:                                             ; preds = %start
  %23 = getelementptr inbounds %"std::sys::unix::process::process_common::Command", %"std::sys::unix::process::process_common::Command"* %_1, i32 0, i32 3
; invoke core::ptr::drop_in_place
  invoke void @_ZN4core3ptr13drop_in_place17h419152b83c7556e2E(%"alloc::vec::Vec<std::ffi::c_str::CString>"* %23)
          to label %bb17 unwind label %cleanup1

cleanup:                                          ; preds = %start
  %24 = landingpad { i8*, i32 }
          cleanup
  %25 = extractvalue { i8*, i32 } %24, 0
  %26 = extractvalue { i8*, i32 } %24, 1
  %27 = getelementptr inbounds { i8*, i32 }, { i8*, i32 }* %0, i32 0, i32 0
  store i8* %25, i8** %27, align 8
  %28 = getelementptr inbounds { i8*, i32 }, { i8*, i32 }* %0, i32 0, i32 1
  store i32 %26, i32* %28, align 8
  br label %bb10

cleanup1:                                         ; preds = %bb18
  %29 = landingpad { i8*, i32 }
          cleanup
  %30 = extractvalue { i8*, i32 } %29, 0
  %31 = extractvalue { i8*, i32 } %29, 1
  %32 = getelementptr inbounds { i8*, i32 }, { i8*, i32 }* %0, i32 0, i32 0
  store i8* %30, i8** %32, align 8
  %33 = getelementptr inbounds { i8*, i32 }, { i8*, i32 }* %0, i32 0, i32 1
  store i32 %31, i32* %33, align 8
  br label %bb9

cleanup2:                                         ; preds = %bb17
  %34 = landingpad { i8*, i32 }
          cleanup
  %35 = extractvalue { i8*, i32 } %34, 0
  %36 = extractvalue { i8*, i32 } %34, 1
  %37 = getelementptr inbounds { i8*, i32 }, { i8*, i32 }* %0, i32 0, i32 0
  store i8* %35, i8** %37, align 8
  %38 = getelementptr inbounds { i8*, i32 }, { i8*, i32 }* %0, i32 0, i32 1
  store i32 %36, i32* %38, align 8
  br label %bb8

cleanup3:                                         ; preds = %bb16
  %39 = landingpad { i8*, i32 }
          cleanup
  %40 = extractvalue { i8*, i32 } %39, 0
  %41 = extractvalue { i8*, i32 } %39, 1
  %42 = getelementptr inbounds { i8*, i32 }, { i8*, i32 }* %0, i32 0, i32 0
  store i8* %40, i8** %42, align 8
  %43 = getelementptr inbounds { i8*, i32 }, { i8*, i32 }* %0, i32 0, i32 1
  store i32 %41, i32* %43, align 8
  br label %bb7

cleanup4:                                         ; preds = %bb15
  %44 = landingpad { i8*, i32 }
          cleanup
  %45 = extractvalue { i8*, i32 } %44, 0
  %46 = extractvalue { i8*, i32 } %44, 1
  %47 = getelementptr inbounds { i8*, i32 }, { i8*, i32 }* %0, i32 0, i32 0
  store i8* %45, i8** %47, align 8
  %48 = getelementptr inbounds { i8*, i32 }, { i8*, i32 }* %0, i32 0, i32 1
  store i32 %46, i32* %48, align 8
  br label %bb6

cleanup5:                                         ; preds = %bb14
  %49 = landingpad { i8*, i32 }
          cleanup
  %50 = extractvalue { i8*, i32 } %49, 0
  %51 = extractvalue { i8*, i32 } %49, 1
  %52 = getelementptr inbounds { i8*, i32 }, { i8*, i32 }* %0, i32 0, i32 0
  store i8* %50, i8** %52, align 8
  %53 = getelementptr inbounds { i8*, i32 }, { i8*, i32 }* %0, i32 0, i32 1
  store i32 %51, i32* %53, align 8
  br label %bb5

cleanup6:                                         ; preds = %bb13
  %54 = landingpad { i8*, i32 }
          cleanup
  %55 = extractvalue { i8*, i32 } %54, 0
  %56 = extractvalue { i8*, i32 } %54, 1
  %57 = getelementptr inbounds { i8*, i32 }, { i8*, i32 }* %0, i32 0, i32 0
  store i8* %55, i8** %57, align 8
  %58 = getelementptr inbounds { i8*, i32 }, { i8*, i32 }* %0, i32 0, i32 1
  store i32 %56, i32* %58, align 8
  br label %bb4

cleanup7:                                         ; preds = %bb12
  %59 = landingpad { i8*, i32 }
          cleanup
  %60 = extractvalue { i8*, i32 } %59, 0
  %61 = extractvalue { i8*, i32 } %59, 1
  %62 = getelementptr inbounds { i8*, i32 }, { i8*, i32 }* %0, i32 0, i32 0
  store i8* %60, i8** %62, align 8
  %63 = getelementptr inbounds { i8*, i32 }, { i8*, i32 }* %0, i32 0, i32 1
  store i32 %61, i32* %63, align 8
  br label %bb3
}

; core::ptr::drop_in_place
; Function Attrs: uwtable
define internal void @_ZN4core3ptr13drop_in_place17h80311b09959b0970E({ i8*, i64 }* %_1) unnamed_addr #1 {
start:
  %0 = bitcast { i8*, i64 }* %_1 to {}**
  %1 = load {}*, {}** %0, align 8
  %2 = icmp ule {}* %1, null
  %_2 = select i1 %2, i64 0, i64 1
  %3 = icmp eq i64 %_2, 0
  br i1 %3, label %bb1, label %bb2

bb1:                                              ; preds = %bb2, %start
  ret void

bb2:                                              ; preds = %start
; call core::ptr::drop_in_place
  call void @_ZN4core3ptr13drop_in_place17h07306fc61a97e26dE({ i8*, i64 }* %_1)
  br label %bb1
}

; core::ptr::drop_in_place
; Function Attrs: uwtable
define internal void @_ZN4core3ptr13drop_in_place17h90c8290daa725bbbE(%"core::alloc::LayoutErr"* %_1) unnamed_addr #1 {
start:
  ret void
}

; core::ptr::drop_in_place
; Function Attrs: uwtable
define internal void @_ZN4core3ptr13drop_in_place17h9561bfe8f79346f6E(%"std::error::{{impl}}::from::StringError"* %_1) unnamed_addr #1 {
start:
  %0 = bitcast %"std::error::{{impl}}::from::StringError"* %_1 to %"alloc::string::String"*
; call core::ptr::drop_in_place
  call void @_ZN4core3ptr13drop_in_place17hc6f7be1d11434a48E(%"alloc::string::String"* %0)
  br label %bb1

bb1:                                              ; preds = %start
  ret void
}

; core::ptr::drop_in_place
; Function Attrs: uwtable
define internal void @_ZN4core3ptr13drop_in_place17h9d3293959f1e12c6E({ i32, i32 }* %_1) unnamed_addr #1 {
start:
  %0 = bitcast { i32, i32 }* %_1 to i32*
  %1 = load i32, i32* %0, align 4, !range !21
  %2 = sub i32 %1, 4
  %3 = icmp ule i32 %2, 0
  %_2 = select i1 %3, i64 0, i64 1
  %4 = icmp eq i64 %_2, 0
  br i1 %4, label %bb1, label %bb2

bb1:                                              ; preds = %bb2, %start
  ret void

bb2:                                              ; preds = %start
; call core::ptr::drop_in_place
  call void @_ZN4core3ptr13drop_in_place17h51e073e9af67a69bE({ i32, i32 }* %_1)
  br label %bb1
}

; core::ptr::drop_in_place
; Function Attrs: uwtable
define internal void @_ZN4core3ptr13drop_in_place17h9d7675d23be18a24E([0 x { {}*, [3 x i64]* }]* %_1.0, i64 %_1.1) unnamed_addr #1 personality i32 (i32, i32, i64, %"unwind::libunwind::_Unwind_Exception"*, %"unwind::libunwind::_Unwind_Context"*)* @rust_eh_personality {
start:
  %0 = alloca { i8*, i32 }, align 8
  %_10 = alloca { {}*, [3 x i64]* }*, align 8
  %_9 = alloca { {}*, [3 x i64]* }*, align 8
  %_4 = alloca i64, align 8
  br i1 false, label %bb7, label %bb12

bb1:                                              ; preds = %bb6, %bb11
  ret void

bb2:                                              ; preds = %bb4, %bb9
  %1 = bitcast { i8*, i32 }* %0 to i8**
  %2 = load i8*, i8** %1, align 8
  %3 = getelementptr inbounds { i8*, i32 }, { i8*, i32 }* %0, i32 0, i32 1
  %4 = load i32, i32* %3, align 8
  %5 = insertvalue { i8*, i32 } undef, i8* %2, 0
  %6 = insertvalue { i8*, i32 } %5, i32 %4, 1
  resume { i8*, i32 } %6

bb3:                                              ; preds = %bb4
  %7 = load i64, i64* %_4, align 8
  %_5 = getelementptr inbounds [0 x { {}*, [3 x i64]* }], [0 x { {}*, [3 x i64]* }]* %_1.0, i64 0, i64 %7
  %8 = load i64, i64* %_4, align 8
  %9 = add i64 %8, 1
  store i64 %9, i64* %_4, align 8
; call core::ptr::drop_in_place
  call void @_ZN4core3ptr13drop_in_place17h1ccfb63075927debE({ {}*, [3 x i64]* }* %_5) #11
  br label %bb4

bb4:                                              ; preds = %bb3, %cleanup1
  %10 = load i64, i64* %_4, align 8
  %_6 = icmp eq i64 %10, %_1.1
  br i1 %_6, label %bb2, label %bb3

bb5:                                              ; preds = %bb6
  %11 = load i64, i64* %_4, align 8
  %_7 = getelementptr inbounds [0 x { {}*, [3 x i64]* }], [0 x { {}*, [3 x i64]* }]* %_1.0, i64 0, i64 %11
  %12 = load i64, i64* %_4, align 8
  %13 = add i64 %12, 1
  store i64 %13, i64* %_4, align 8
; invoke core::ptr::drop_in_place
  invoke void @_ZN4core3ptr13drop_in_place17h1ccfb63075927debE({ {}*, [3 x i64]* }* %_7)
          to label %bb6 unwind label %cleanup1

bb6:                                              ; preds = %bb5, %bb7
  %14 = load i64, i64* %_4, align 8
  %_8 = icmp eq i64 %14, %_1.1
  br i1 %_8, label %bb1, label %bb5

bb7:                                              ; preds = %start
  store i64 0, i64* %_4, align 8
  br label %bb6

bb8:                                              ; preds = %bb9
  %_11 = load { {}*, [3 x i64]* }*, { {}*, [3 x i64]* }** %_9, align 8
  %15 = load { {}*, [3 x i64]* }*, { {}*, [3 x i64]* }** %_9, align 8
  %16 = getelementptr inbounds { {}*, [3 x i64]* }, { {}*, [3 x i64]* }* %15, i64 1
  store { {}*, [3 x i64]* }* %16, { {}*, [3 x i64]* }** %_9, align 8
; call core::ptr::drop_in_place
  call void @_ZN4core3ptr13drop_in_place17h1ccfb63075927debE({ {}*, [3 x i64]* }* %_11) #11
  br label %bb9

bb9:                                              ; preds = %bb8, %cleanup
  %17 = load { {}*, [3 x i64]* }*, { {}*, [3 x i64]* }** %_9, align 8
  %18 = load { {}*, [3 x i64]* }*, { {}*, [3 x i64]* }** %_10, align 8
  %_12 = icmp eq { {}*, [3 x i64]* }* %17, %18
  br i1 %_12, label %bb2, label %bb8

bb10:                                             ; preds = %bb11
  %_13 = load { {}*, [3 x i64]* }*, { {}*, [3 x i64]* }** %_9, align 8
  %19 = load { {}*, [3 x i64]* }*, { {}*, [3 x i64]* }** %_9, align 8
  %20 = getelementptr inbounds { {}*, [3 x i64]* }, { {}*, [3 x i64]* }* %19, i64 1
  store { {}*, [3 x i64]* }* %20, { {}*, [3 x i64]* }** %_9, align 8
; invoke core::ptr::drop_in_place
  invoke void @_ZN4core3ptr13drop_in_place17h1ccfb63075927debE({ {}*, [3 x i64]* }* %_13)
          to label %bb11 unwind label %cleanup

bb11:                                             ; preds = %bb10, %bb12
  %21 = load { {}*, [3 x i64]* }*, { {}*, [3 x i64]* }** %_9, align 8
  %22 = load { {}*, [3 x i64]* }*, { {}*, [3 x i64]* }** %_10, align 8
  %_14 = icmp eq { {}*, [3 x i64]* }* %21, %22
  br i1 %_14, label %bb1, label %bb10

bb12:                                             ; preds = %start
  %23 = bitcast [0 x { {}*, [3 x i64]* }]* %_1.0 to { {}*, [3 x i64]* }*
  store { {}*, [3 x i64]* }* %23, { {}*, [3 x i64]* }** %_9, align 8
  %24 = load { {}*, [3 x i64]* }*, { {}*, [3 x i64]* }** %_9, align 8
  %25 = getelementptr inbounds { {}*, [3 x i64]* }, { {}*, [3 x i64]* }* %24, i64 %_1.1
  store { {}*, [3 x i64]* }* %25, { {}*, [3 x i64]* }** %_10, align 8
  br label %bb11

cleanup:                                          ; preds = %bb10
  %26 = landingpad { i8*, i32 }
          cleanup
  %27 = extractvalue { i8*, i32 } %26, 0
  %28 = extractvalue { i8*, i32 } %26, 1
  %29 = getelementptr inbounds { i8*, i32 }, { i8*, i32 }* %0, i32 0, i32 0
  store i8* %27, i8** %29, align 8
  %30 = getelementptr inbounds { i8*, i32 }, { i8*, i32 }* %0, i32 0, i32 1
  store i32 %28, i32* %30, align 8
  br label %bb9

cleanup1:                                         ; preds = %bb5
  %31 = landingpad { i8*, i32 }
          cleanup
  %32 = extractvalue { i8*, i32 } %31, 0
  %33 = extractvalue { i8*, i32 } %31, 1
  %34 = getelementptr inbounds { i8*, i32 }, { i8*, i32 }* %0, i32 0, i32 0
  store i8* %32, i8** %34, align 8
  %35 = getelementptr inbounds { i8*, i32 }, { i8*, i32 }* %0, i32 0, i32 1
  store i32 %33, i32* %35, align 8
  br label %bb4
}

; core::ptr::drop_in_place
; Function Attrs: uwtable
define internal void @_ZN4core3ptr13drop_in_place17h9ec54b2b13b052deE(%"alloc::vec::Vec<*const i8>"* %_1) unnamed_addr #1 personality i32 (i32, i32, i64, %"unwind::libunwind::_Unwind_Exception"*, %"unwind::libunwind::_Unwind_Context"*)* @rust_eh_personality {
start:
  %0 = alloca { i8*, i32 }, align 8
; invoke <alloc::vec::Vec<T> as core::ops::drop::Drop>::drop
  invoke void @"_ZN66_$LT$alloc..vec..Vec$LT$T$GT$$u20$as$u20$core..ops..drop..Drop$GT$4drop17h33a4b1a4c4670000E"(%"alloc::vec::Vec<*const i8>"* align 8 dereferenceable(24) %_1)
          to label %bb4 unwind label %cleanup

bb1:                                              ; preds = %bb3
  %1 = bitcast { i8*, i32 }* %0 to i8**
  %2 = load i8*, i8** %1, align 8
  %3 = getelementptr inbounds { i8*, i32 }, { i8*, i32 }* %0, i32 0, i32 1
  %4 = load i32, i32* %3, align 8
  %5 = insertvalue { i8*, i32 } undef, i8* %2, 0
  %6 = insertvalue { i8*, i32 } %5, i32 %4, 1
  resume { i8*, i32 } %6

bb2:                                              ; preds = %bb4
  ret void

bb3:                                              ; preds = %cleanup
  %7 = bitcast %"alloc::vec::Vec<*const i8>"* %_1 to { i64*, i64 }*
; call core::ptr::drop_in_place
  call void @_ZN4core3ptr13drop_in_place17h22310cd85bcecde8E({ i64*, i64 }* %7) #11
  br label %bb1

bb4:                                              ; preds = %start
  %8 = bitcast %"alloc::vec::Vec<*const i8>"* %_1 to { i64*, i64 }*
; call core::ptr::drop_in_place
  call void @_ZN4core3ptr13drop_in_place17h22310cd85bcecde8E({ i64*, i64 }* %8)
  br label %bb2

cleanup:                                          ; preds = %start
  %9 = landingpad { i8*, i32 }
          cleanup
  %10 = extractvalue { i8*, i32 } %9, 0
  %11 = extractvalue { i8*, i32 } %9, 1
  %12 = getelementptr inbounds { i8*, i32 }, { i8*, i32 }* %0, i32 0, i32 0
  store i8* %10, i8** %12, align 8
  %13 = getelementptr inbounds { i8*, i32 }, { i8*, i32 }* %0, i32 0, i32 1
  store i32 %11, i32* %13, align 8
  br label %bb3
}

; core::ptr::drop_in_place
; Function Attrs: uwtable
define internal void @_ZN4core3ptr13drop_in_place17ha1eed45c292f992fE([0 x { i8*, i64 }]* %_1.0, i64 %_1.1) unnamed_addr #1 personality i32 (i32, i32, i64, %"unwind::libunwind::_Unwind_Exception"*, %"unwind::libunwind::_Unwind_Context"*)* @rust_eh_personality {
start:
  %0 = alloca { i8*, i32 }, align 8
  %_10 = alloca { i8*, i64 }*, align 8
  %_9 = alloca { i8*, i64 }*, align 8
  %_4 = alloca i64, align 8
  br i1 false, label %bb7, label %bb12

bb1:                                              ; preds = %bb6, %bb11
  ret void

bb2:                                              ; preds = %bb4, %bb9
  %1 = bitcast { i8*, i32 }* %0 to i8**
  %2 = load i8*, i8** %1, align 8
  %3 = getelementptr inbounds { i8*, i32 }, { i8*, i32 }* %0, i32 0, i32 1
  %4 = load i32, i32* %3, align 8
  %5 = insertvalue { i8*, i32 } undef, i8* %2, 0
  %6 = insertvalue { i8*, i32 } %5, i32 %4, 1
  resume { i8*, i32 } %6

bb3:                                              ; preds = %bb4
  %7 = load i64, i64* %_4, align 8
  %_5 = getelementptr inbounds [0 x { i8*, i64 }], [0 x { i8*, i64 }]* %_1.0, i64 0, i64 %7
  %8 = load i64, i64* %_4, align 8
  %9 = add i64 %8, 1
  store i64 %9, i64* %_4, align 8
; call core::ptr::drop_in_place
  call void @_ZN4core3ptr13drop_in_place17h07306fc61a97e26dE({ i8*, i64 }* %_5) #11
  br label %bb4

bb4:                                              ; preds = %bb3, %cleanup1
  %10 = load i64, i64* %_4, align 8
  %_6 = icmp eq i64 %10, %_1.1
  br i1 %_6, label %bb2, label %bb3

bb5:                                              ; preds = %bb6
  %11 = load i64, i64* %_4, align 8
  %_7 = getelementptr inbounds [0 x { i8*, i64 }], [0 x { i8*, i64 }]* %_1.0, i64 0, i64 %11
  %12 = load i64, i64* %_4, align 8
  %13 = add i64 %12, 1
  store i64 %13, i64* %_4, align 8
; invoke core::ptr::drop_in_place
  invoke void @_ZN4core3ptr13drop_in_place17h07306fc61a97e26dE({ i8*, i64 }* %_7)
          to label %bb6 unwind label %cleanup1

bb6:                                              ; preds = %bb5, %bb7
  %14 = load i64, i64* %_4, align 8
  %_8 = icmp eq i64 %14, %_1.1
  br i1 %_8, label %bb1, label %bb5

bb7:                                              ; preds = %start
  store i64 0, i64* %_4, align 8
  br label %bb6

bb8:                                              ; preds = %bb9
  %_11 = load { i8*, i64 }*, { i8*, i64 }** %_9, align 8
  %15 = load { i8*, i64 }*, { i8*, i64 }** %_9, align 8
  %16 = getelementptr inbounds { i8*, i64 }, { i8*, i64 }* %15, i64 1
  store { i8*, i64 }* %16, { i8*, i64 }** %_9, align 8
; call core::ptr::drop_in_place
  call void @_ZN4core3ptr13drop_in_place17h07306fc61a97e26dE({ i8*, i64 }* %_11) #11
  br label %bb9

bb9:                                              ; preds = %bb8, %cleanup
  %17 = load { i8*, i64 }*, { i8*, i64 }** %_9, align 8
  %18 = load { i8*, i64 }*, { i8*, i64 }** %_10, align 8
  %_12 = icmp eq { i8*, i64 }* %17, %18
  br i1 %_12, label %bb2, label %bb8

bb10:                                             ; preds = %bb11
  %_13 = load { i8*, i64 }*, { i8*, i64 }** %_9, align 8
  %19 = load { i8*, i64 }*, { i8*, i64 }** %_9, align 8
  %20 = getelementptr inbounds { i8*, i64 }, { i8*, i64 }* %19, i64 1
  store { i8*, i64 }* %20, { i8*, i64 }** %_9, align 8
; invoke core::ptr::drop_in_place
  invoke void @_ZN4core3ptr13drop_in_place17h07306fc61a97e26dE({ i8*, i64 }* %_13)
          to label %bb11 unwind label %cleanup

bb11:                                             ; preds = %bb10, %bb12
  %21 = load { i8*, i64 }*, { i8*, i64 }** %_9, align 8
  %22 = load { i8*, i64 }*, { i8*, i64 }** %_10, align 8
  %_14 = icmp eq { i8*, i64 }* %21, %22
  br i1 %_14, label %bb1, label %bb10

bb12:                                             ; preds = %start
  %23 = bitcast [0 x { i8*, i64 }]* %_1.0 to { i8*, i64 }*
  store { i8*, i64 }* %23, { i8*, i64 }** %_9, align 8
  %24 = load { i8*, i64 }*, { i8*, i64 }** %_9, align 8
  %25 = getelementptr inbounds { i8*, i64 }, { i8*, i64 }* %24, i64 %_1.1
  store { i8*, i64 }* %25, { i8*, i64 }** %_10, align 8
  br label %bb11

cleanup:                                          ; preds = %bb10
  %26 = landingpad { i8*, i32 }
          cleanup
  %27 = extractvalue { i8*, i32 } %26, 0
  %28 = extractvalue { i8*, i32 } %26, 1
  %29 = getelementptr inbounds { i8*, i32 }, { i8*, i32 }* %0, i32 0, i32 0
  store i8* %27, i8** %29, align 8
  %30 = getelementptr inbounds { i8*, i32 }, { i8*, i32 }* %0, i32 0, i32 1
  store i32 %28, i32* %30, align 8
  br label %bb9

cleanup1:                                         ; preds = %bb5
  %31 = landingpad { i8*, i32 }
          cleanup
  %32 = extractvalue { i8*, i32 } %31, 0
  %33 = extractvalue { i8*, i32 } %31, 1
  %34 = getelementptr inbounds { i8*, i32 }, { i8*, i32 }* %0, i32 0, i32 0
  store i8* %32, i8** %34, align 8
  %35 = getelementptr inbounds { i8*, i32 }, { i8*, i32 }* %0, i32 0, i32 1
  store i32 %33, i32* %35, align 8
  br label %bb4
}

; core::ptr::drop_in_place
; Function Attrs: uwtable
define internal void @_ZN4core3ptr13drop_in_place17ha26aebc9c5ab3612E(%"std::sys_common::process::CommandEnv"* %_1) unnamed_addr #1 {
start:
  %0 = bitcast %"std::sys_common::process::CommandEnv"* %_1 to %"alloc::collections::btree::map::BTreeMap<std::ffi::os_str::OsString, core::option::Option<std::ffi::os_str::OsString>>"*
; call core::ptr::drop_in_place
  call void @_ZN4core3ptr13drop_in_place17hac80e4c4672d739eE(%"alloc::collections::btree::map::BTreeMap<std::ffi::os_str::OsString, core::option::Option<std::ffi::os_str::OsString>>"* %0)
  br label %bb1

bb1:                                              ; preds = %start
  ret void
}

; core::ptr::drop_in_place
; Function Attrs: uwtable
define internal void @_ZN4core3ptr13drop_in_place17ha61820e5e833ba49E(%"core::option::Option<(std::ffi::os_str::OsString, core::option::Option<std::ffi::os_str::OsString>)>"* %_1) unnamed_addr #1 {
start:
  %0 = bitcast %"core::option::Option<(std::ffi::os_str::OsString, core::option::Option<std::ffi::os_str::OsString>)>"* %_1 to {}**
  %1 = load {}*, {}** %0, align 8
  %2 = icmp ule {}* %1, null
  %_2 = select i1 %2, i64 0, i64 1
  %3 = icmp eq i64 %_2, 0
  br i1 %3, label %bb1, label %bb2

bb1:                                              ; preds = %bb2, %start
  ret void

bb2:                                              ; preds = %start
  %4 = bitcast %"core::option::Option<(std::ffi::os_str::OsString, core::option::Option<std::ffi::os_str::OsString>)>"* %_1 to %"core::option::Option<(std::ffi::os_str::OsString, core::option::Option<std::ffi::os_str::OsString>)>::Some"*
  %5 = bitcast %"core::option::Option<(std::ffi::os_str::OsString, core::option::Option<std::ffi::os_str::OsString>)>::Some"* %4 to { [0 x i64], %"std::ffi::os_str::OsString", [0 x i64], %"core::option::Option<std::ffi::os_str::OsString>", [0 x i64] }*
; call core::ptr::drop_in_place
  call void @_ZN4core3ptr13drop_in_place17h0a56ca0e3a57c5beE({ [0 x i64], %"std::ffi::os_str::OsString", [0 x i64], %"core::option::Option<std::ffi::os_str::OsString>", [0 x i64] }* %5)
  br label %bb1
}

; core::ptr::drop_in_place
; Function Attrs: uwtable
define internal void @_ZN4core3ptr13drop_in_place17ha6690540682b674dE({ {}*, [3 x i64]* }* %_1) unnamed_addr #1 personality i32 (i32, i32, i64, %"unwind::libunwind::_Unwind_Exception"*, %"unwind::libunwind::_Unwind_Context"*)* @rust_eh_personality {
start:
  %0 = alloca { i8*, i32 }, align 8
  %1 = getelementptr inbounds { {}*, [3 x i64]* }, { {}*, [3 x i64]* }* %_1, i32 0, i32 0
  %2 = load {}*, {}** %1, align 8, !nonnull !3
  %3 = getelementptr inbounds { {}*, [3 x i64]* }, { {}*, [3 x i64]* }* %_1, i32 0, i32 1
  %4 = load [3 x i64]*, [3 x i64]** %3, align 8, !nonnull !3
  %5 = bitcast [3 x i64]* %4 to void ({}*)**
  %6 = getelementptr inbounds void ({}*)*, void ({}*)** %5, i64 0
  %7 = load void ({}*)*, void ({}*)** %6, align 8, !invariant.load !3, !nonnull !3
  invoke void %7({}* %2)
          to label %bb3 unwind label %cleanup

bb1:                                              ; preds = %bb3
  ret void

bb2:                                              ; preds = %bb4
  %8 = bitcast { i8*, i32 }* %0 to i8**
  %9 = load i8*, i8** %8, align 8
  %10 = getelementptr inbounds { i8*, i32 }, { i8*, i32 }* %0, i32 0, i32 1
  %11 = load i32, i32* %10, align 8
  %12 = insertvalue { i8*, i32 } undef, i8* %9, 0
  %13 = insertvalue { i8*, i32 } %12, i32 %11, 1
  resume { i8*, i32 } %13

bb3:                                              ; preds = %start
  %14 = bitcast { {}*, [3 x i64]* }* %_1 to { i8*, i64* }*
  %15 = getelementptr inbounds { i8*, i64* }, { i8*, i64* }* %14, i32 0, i32 0
  %16 = load i8*, i8** %15, align 8, !nonnull !3
  %17 = getelementptr inbounds { i8*, i64* }, { i8*, i64* }* %14, i32 0, i32 1
  %18 = load i64*, i64** %17, align 8, !nonnull !3
; call alloc::alloc::box_free
  call void @_ZN5alloc5alloc8box_free17hfcda66ce65d1f7e1E(i8* nonnull %16, i64* noalias readonly align 8 dereferenceable(24) %18)
  br label %bb1

bb4:                                              ; preds = %cleanup
  %19 = bitcast { {}*, [3 x i64]* }* %_1 to { i8*, i64* }*
  %20 = getelementptr inbounds { i8*, i64* }, { i8*, i64* }* %19, i32 0, i32 0
  %21 = load i8*, i8** %20, align 8, !nonnull !3
  %22 = getelementptr inbounds { i8*, i64* }, { i8*, i64* }* %19, i32 0, i32 1
  %23 = load i64*, i64** %22, align 8, !nonnull !3
; call alloc::alloc::box_free
  call void @_ZN5alloc5alloc8box_free17hfcda66ce65d1f7e1E(i8* nonnull %21, i64* noalias readonly align 8 dereferenceable(24) %23) #11
  br label %bb2

cleanup:                                          ; preds = %start
  %24 = landingpad { i8*, i32 }
          cleanup
  %25 = extractvalue { i8*, i32 } %24, 0
  %26 = extractvalue { i8*, i32 } %24, 1
  %27 = getelementptr inbounds { i8*, i32 }, { i8*, i32 }* %0, i32 0, i32 0
  store i8* %25, i8** %27, align 8
  %28 = getelementptr inbounds { i8*, i32 }, { i8*, i32 }* %0, i32 0, i32 1
  store i32 %26, i32* %28, align 8
  br label %bb4
}

; core::ptr::drop_in_place
; Function Attrs: uwtable
define internal void @_ZN4core3ptr13drop_in_place17haae8160bc72fc3afE(%"core::result::Result<alloc::string::String, std::env::VarError>"* %_1) unnamed_addr #1 {
start:
  %0 = bitcast %"core::result::Result<alloc::string::String, std::env::VarError>"* %_1 to i64*
  %_2 = load i64, i64* %0, align 8, !range !7
  %1 = icmp eq i64 %_2, 0
  br i1 %1, label %bb2, label %bb3

bb1:                                              ; preds = %bb2, %bb3
  ret void

bb2:                                              ; preds = %start
  %2 = bitcast %"core::result::Result<alloc::string::String, std::env::VarError>"* %_1 to %"core::result::Result<alloc::string::String, std::env::VarError>::Ok"*
  %3 = getelementptr inbounds %"core::result::Result<alloc::string::String, std::env::VarError>::Ok", %"core::result::Result<alloc::string::String, std::env::VarError>::Ok"* %2, i32 0, i32 1
; call core::ptr::drop_in_place
  call void @_ZN4core3ptr13drop_in_place17hc6f7be1d11434a48E(%"alloc::string::String"* %3)
  br label %bb1

bb3:                                              ; preds = %start
  %4 = bitcast %"core::result::Result<alloc::string::String, std::env::VarError>"* %_1 to %"core::result::Result<alloc::string::String, std::env::VarError>::Err"*
  %5 = getelementptr inbounds %"core::result::Result<alloc::string::String, std::env::VarError>::Err", %"core::result::Result<alloc::string::String, std::env::VarError>::Err"* %4, i32 0, i32 1
; call core::ptr::drop_in_place
  call void @_ZN4core3ptr13drop_in_place17h0be8f2dd0311b323E(%"std::env::VarError"* %5)
  br label %bb1
}

; core::ptr::drop_in_place
; Function Attrs: uwtable
define internal void @_ZN4core3ptr13drop_in_place17hac80e4c4672d739eE(%"alloc::collections::btree::map::BTreeMap<std::ffi::os_str::OsString, core::option::Option<std::ffi::os_str::OsString>>"* %_1) unnamed_addr #1 {
start:
; call <alloc::collections::btree::map::BTreeMap<K,V> as core::ops::drop::Drop>::drop
  call void @"_ZN95_$LT$alloc..collections..btree..map..BTreeMap$LT$K$C$V$GT$$u20$as$u20$core..ops..drop..Drop$GT$4drop17hf905bb36e1f02ce4E"(%"alloc::collections::btree::map::BTreeMap<std::ffi::os_str::OsString, core::option::Option<std::ffi::os_str::OsString>>"* align 8 dereferenceable(24) %_1)
  br label %bb1

bb1:                                              ; preds = %start
  ret void
}

; core::ptr::drop_in_place
; Function Attrs: uwtable
define internal void @_ZN4core3ptr13drop_in_place17haca1c9efcadb53ecE(i32* %_1) unnamed_addr #1 {
start:
; call <std::sys::unix::fd::FileDesc as core::ops::drop::Drop>::drop
  call void @"_ZN70_$LT$std..sys..unix..fd..FileDesc$u20$as$u20$core..ops..drop..Drop$GT$4drop17hdcdda08dc50b878bE"(i32* align 4 dereferenceable(4) %_1)
  br label %bb1

bb1:                                              ; preds = %start
  ret void
}

; core::ptr::drop_in_place
; Function Attrs: uwtable
define internal void @_ZN4core3ptr13drop_in_place17had1fb3e993ab09f9E(%"std::process::Command"* %_1) unnamed_addr #1 {
start:
  %0 = bitcast %"std::process::Command"* %_1 to %"std::sys::unix::process::process_common::Command"*
; call core::ptr::drop_in_place
  call void @_ZN4core3ptr13drop_in_place17h7e0072b5d9fb5b8dE(%"std::sys::unix::process::process_common::Command"* %0)
  br label %bb1

bb1:                                              ; preds = %start
  ret void
}

; core::ptr::drop_in_place
; Function Attrs: uwtable
define internal void @_ZN4core3ptr13drop_in_place17hae3e51f2158c2b61E(%"core::option::Option<std::ffi::os_str::OsString>"* %_1) unnamed_addr #1 {
start:
  %0 = bitcast %"core::option::Option<std::ffi::os_str::OsString>"* %_1 to {}**
  %1 = load {}*, {}** %0, align 8
  %2 = icmp ule {}* %1, null
  %_2 = select i1 %2, i64 0, i64 1
  %3 = icmp eq i64 %_2, 0
  br i1 %3, label %bb1, label %bb2

bb1:                                              ; preds = %bb2, %start
  ret void

bb2:                                              ; preds = %start
  %4 = bitcast %"core::option::Option<std::ffi::os_str::OsString>"* %_1 to %"core::option::Option<std::ffi::os_str::OsString>::Some"*
  %5 = bitcast %"core::option::Option<std::ffi::os_str::OsString>::Some"* %4 to %"std::ffi::os_str::OsString"*
; call core::ptr::drop_in_place
  call void @_ZN4core3ptr13drop_in_place17h07851e4e39522b52E(%"std::ffi::os_str::OsString"* %5)
  br label %bb1
}

; core::ptr::drop_in_place
; Function Attrs: uwtable
define internal void @_ZN4core3ptr13drop_in_place17hba3c8877a60f397aE(%"std::io::error::Custom"** %_1) unnamed_addr #1 personality i32 (i32, i32, i64, %"unwind::libunwind::_Unwind_Exception"*, %"unwind::libunwind::_Unwind_Context"*)* @rust_eh_personality {
start:
  %0 = alloca { i8*, i32 }, align 8
  %1 = load %"std::io::error::Custom"*, %"std::io::error::Custom"** %_1, align 8, !nonnull !3
; invoke core::ptr::drop_in_place
  invoke void @_ZN4core3ptr13drop_in_place17hbde466cc3f5b0097E(%"std::io::error::Custom"* %1)
          to label %bb3 unwind label %cleanup

bb1:                                              ; preds = %bb3
  ret void

bb2:                                              ; preds = %bb4
  %2 = bitcast { i8*, i32 }* %0 to i8**
  %3 = load i8*, i8** %2, align 8
  %4 = getelementptr inbounds { i8*, i32 }, { i8*, i32 }* %0, i32 0, i32 1
  %5 = load i32, i32* %4, align 8
  %6 = insertvalue { i8*, i32 } undef, i8* %3, 0
  %7 = insertvalue { i8*, i32 } %6, i32 %5, 1
  resume { i8*, i32 } %7

bb3:                                              ; preds = %start
  %8 = bitcast %"std::io::error::Custom"** %_1 to i64**
  %9 = load i64*, i64** %8, align 8, !nonnull !3
; call alloc::alloc::box_free
  call void @_ZN5alloc5alloc8box_free17hf25af99fe17dd550E(i64* nonnull %9)
  br label %bb1

bb4:                                              ; preds = %cleanup
  %10 = bitcast %"std::io::error::Custom"** %_1 to i64**
  %11 = load i64*, i64** %10, align 8, !nonnull !3
; call alloc::alloc::box_free
  call void @_ZN5alloc5alloc8box_free17hf25af99fe17dd550E(i64* nonnull %11) #11
  br label %bb2

cleanup:                                          ; preds = %start
  %12 = landingpad { i8*, i32 }
          cleanup
  %13 = extractvalue { i8*, i32 } %12, 0
  %14 = extractvalue { i8*, i32 } %12, 1
  %15 = getelementptr inbounds { i8*, i32 }, { i8*, i32 }* %0, i32 0, i32 0
  store i8* %13, i8** %15, align 8
  %16 = getelementptr inbounds { i8*, i32 }, { i8*, i32 }* %0, i32 0, i32 1
  store i32 %14, i32* %16, align 8
  br label %bb4
}

; core::ptr::drop_in_place
; Function Attrs: uwtable
define internal void @_ZN4core3ptr13drop_in_place17hbbdefab09f84340cE(%"std::path::PathBuf"* %_1) unnamed_addr #1 {
start:
  %0 = bitcast %"std::path::PathBuf"* %_1 to %"std::ffi::os_str::OsString"*
; call core::ptr::drop_in_place
